(dp0
V1244657664.0jloehrle1
p1
Vx
p2
sVAngryVoodooZombie
p3
Vx
p4
sVHiredgun
p5
Vx
p6
sVCorpse
p7
Vx
p8
sVCarrionKnife
p9
Vx
p10
sVJOLLY_ROGER
p11
Vx
p12
sV1181607808.0dxschafe
p13
Vx
p14
sVCaptMudmoss
p15
Vx
p16
sVSwampTerror
p17
Vx
p18
sV1157098120.05jasyeung
p19
Vx
p20
sVDouse
p21
Vx
p22
sVDevilwing
p23
Vx
p24
sV1291327895.46jloehrle
p25
I0
sVHMS_INVINCIBLE
p26
Vx
p27
sVCrusherCrab
p28
Vx
p29
sV1219434293.16mtucker
p30
Vx
p31
sVSKEL_HELLHOUND_SP
p32
Vx
p33
sVNAVY_COLOSSUS
p34
Vx
p35
sV1196901888.0dxschafe
p36
Vx
p37
sV1232496514.28WDIG
p38
Vx
p39
sVFireBat
p40
Vx
p41
sVEITC_OGRE
p42
Vx
p43
sVPressGangVoodooZombie
p44
Vx
p45
sVThaddeusWoodworm
p46
Vx
p47
sVAlligator
p48
Vx
p49
sV1220906480.53mtucker
p50
Vx
p51
sVStoneCrab
p52
Vx
p53
sVHUNTER_CENTURY_HAWK
p54
Vx
p55
sVMarine
p56
Vx
p57
sVSilentStinger
p58
Vx
p59
sVDrench
p60
Vx
p61
sVEITC_CORSAIR
p62
Vx
p63
sVBat
p64
Vx
p65
sVNathanielGrimm
p66
Vx
p67
sVBigGator
p68
Vx
p69
sVSKEL_BLOOD_SCOURGE_SP
p70
Vx
p71
sV1186098688.0dxschafe
p72
Vx
p73
sVOfficer
p74
Vx
p75
sV1169075869.81mike
p76
Vx
p77
sVAssassin
p78
Vx
p79
sVKillerWasp
p80
Vx
p81
sVEITC_MARAUDER
p82
Vx
p83
sVSidShiver
p84
Vx
p85
sV1219352693.09mtucker
p86
Vx
p87
sVNAVY_VANGUARD
p88
Vx
p89
sVHUNTER_EN_GARDE
p90
Vx
p91
sVBayouGator
p92
Vx
p93
sVFLYING_DUTCHMAN
p94
Vx
p95
sVWillBurybones
p96
Vx
p97
sVHugeGator
p98
Vx
p99
sV1181605248.0dxschafe
p100
Vx
p101
sVManRipper
p102
Vx
p103
sVNAVY_FERRET
p104
Vx
p105
sVWasp
p106
Vx
p107
sVGiantCrab
p108
Vx
p109
sV1303260680.08jloehrle
p110
Vx
p111
sVDreadScorpion
p112
Vx
p113
sVEITC_BLOODHOUND
p114
Vx
p115
sVSoldierWasp
p116
Vx
p117
sVEITC_CORVETTE
p118
Vx
p119
sVSKEL_BLACK_HARBINGER
p120
Vx
p121
sVDamp
p122
Vx
p123
sVScorpion
p124
Vx
p125
sVNAVY_CENTURION
p126
Vx
p127
sV1219424341.05mtucker
p128
Vx
p129
sVMuck
p130
Vx
p131
sVCarlosCudgel
p132
Vx
p133
sV1303331892.2jloehrle
p134
Vx
p135
sVSnapDragon
p136
Vx
p137
sV1181606272.0dxschafe
p138
Vx
p139
sVThadIllFortune
p140
Vx
p141
sVHMS_VICTORY
p142
Vx
p143
sVCadaverCutlass
p144
Vx
p145
sVSKEL_HELLHOUND_FR
p146
Vx
p147
sVTwistedStump
p148
Vx
p149
sVMire
p150
Vx
p151
sVBowbreaker
p152
Vx
p153
sV1219428571.98mtucker
p154
Vx
p155
sVEITC_CONQUERER
p156
Vx
p157
sV1201109074.66dxschafe
p158
Vx
p159
sVSKEL_BLOOD_SCOURGE_FR
p160
Vx
p161
sVEITC_WARLORD
p162
Vx
p163
sV1201228098.28dxschafe
p164
Vx
p165
sVNAVY_GREYHOUND
p166
Vx
p167
sVGeoffreyPain
p168
Vx
p169
sV1216249894.26aapatel
p170
Vx
p171
sV1157098075.78jasyeung
p172
Vx
p173
sVFlytrap
p174
Vx
p175
sVEITC_BEHEMOTH
p176
Vx
p177
sV1181171584.0dxschafe0
p178
Vx
p179
sVJeremyColdhand
p180
Vx
p181
sVSKEL_SHADOW_CROW_SP
p182
Vx
p183
sVHUNTER_VENGEANCE
p184
Vx
p185
sVSKEL_PHANTOM
p186
Vx
p187
sVNAVY_PANTHER
p188
Vx
p189
sVWhitWidowmaker
p190
Vx
p191
sVSKEL_DEATH_OMEN
p192
Vx
p193
sVSludge
p194
Vx
p195
sVEITC_INTREPID
p196
Vx
p197
sVFiresting
p198
Vx
p199
sV1201224743.34dxschafe
p200
Vx
p201
sV1201025280.0dxschafe
p202
Vx
p203
sV1169077081.52mike
p204
Vx
p205
sVEITC_IRONWALL
p206
Vx
p207
sVCaptBriney
p208
Vx
p209
sVCorpseCutlass
p210
Vx
p211
sVTraitorGhost
p212
Vx
p213
sVSKEL_STORM_REAPER
p214
Vx
p215
sVAngryWasp
p216
Vx
p217
sV1203451240.81akelts
p218
Vx
p219
sVSHIP_OF_THE_LINE
p220
Vx
p221
sVMutineerGhost
p222
Vx
p223
sVFrenchUndeadA
p224
Vx
p225
sVGideonGrog
p226
Vx
p227
sVSpanishUndeadC
p228
Vx
p229
sV1219426331.38mtucker
p230
Vx
p231
sVRancidFlytrap
p232
Vx
p233
sVSpanishUndeadB
p234
Vx
p235
sVRageGhost
p236
I0
sVHenryFlint
p237
Vx
p238
sVAncientFlytrap
p239
Vx
p240
sVEITC_SENTINEL
p241
Vx
p242
sV1286991539.99gcarranza
p243
Vx
p244
sV1157098037.86jasyeung
p245
Vx
p246
sV1181260928.0dxschafe
p247
Vx
p248
sVRipTail
p249
Vx
p250
sV1201227181.3dxschafe
p251
Vx
p252
sV1165199931.31Shochet
p253
Vx
p254
sV1157098184.94jasyeung
p255
Vx
p256
sVEdwardLohand
p257
Vx
p258
sV1286991877.14gcarranza
p259
Vx
p260
sVDrool
p261
Vx
p262
sVSpanishUndeadD
p263
Vx
p264
sVFishSmall
p265
Vx
p266
sVHUNTER_RED_DERVISH
p267
Vx
p268
sVZombie
p269
Vx
p270
sVTrapjaw
p271
Vx
p272
sV1201226462.13dxschafe
p273
Vx
p274
sV1218760329.71mtucker
p275
Vx
p276
sV1157097924.52jasyeung
p277
Vx
p278
sVSpanishUndeadA
p279
Vx
p280
sV1201223902.67dxschafe
p281
Vx
p282
sVCadaver
p283
Vx
p284
sVQuestProp
p285
Vx
p286
sVHUNTER_BATTLEROYALE
p287
Vx
p288
sV1181260288.0dxschafe
p289
Vx
p290
sV1213983053.36aapatel
p291
Vx
p292
sVNAVY_KINGFISHER
p293
Vx
p294
sVGrunt
p295
Vx
p296
sVHMS_NEWCASTLE
p297
Vx
p298
sV1218760328.71mtucker
p299
Vx
p300
sV1196896512.0dxschafe
p301
Vx
p302
sVRockCrab
p303
Vx
p304
sVSwabbieVoodooZombie
p305
Vx
p306
sVSimonButcher
p307
Vx
p308
sVVeteran
p309
Vx
p310
sVVampireBat
p311
Vx
p312
sVRevenant
p313
Vx
p314
sVSlaveDriverVoodooZombie
p315
Vx
p316
sVDrip
p317
Vx
p318
sVMuckCutlass
p319
Vx
p320
sVCarrion
p321
Vx
p322
sVZachariahSharp
p323
Vx
p324
sVEITC_BARRACUDA
p325
Vx
p326
sVFishLarge
p327
Vx
p328
sV1216766113.92aapatel
p329
Vx
p330
sVClod
p331
Vx
p332
sVStump
p333
Vx
p334
sVNAVY_MONARCH
p335
Vx
p336
sVEITC_LEVIATHAN
p337
Vx
p338
sVDireScorpion
p339
Vx
p340
sVDeviousGhost
p341
Vx
p342
sVEITC_JUGGERNAUT
p343
Vx
p344
sVFrancisFaust
p345
Vx
p346
sVFrenchUndeadB
p347
Vx
p348
sVFishMed
p349
Vx
p350
sVFrenchUndeadD
p351
Vx
p352
sVBonecracker
p353
Vx
p354
sVSplatter
p355
Vx
p356
sVRabidBat
p357
Vx
p358
sVIanRamjaw
p359
Vx
p360
sVDrizzle
p361
Vx
p362
sVNAVY_MAN_O_WAR
p363
Vx
p364
sVStench
p365
Vx
p366
sV1196907776.0dxschafe0
p367
Vx
p368
sVHughBrandish
p369
Vx
p370
sVSandStalker
p371
Vx
p372
sVFrightfang
p373
Vx
p374
sVEITC_SEA_VIPER
p375
Vx
p376
sVPhineasFowl
p377
Vx
p378
sVMakeAPirate
p379
Vx
p380
sV1244832512.0jloehrle
p381
Vx
p382
sVSergeant
p383
Vx
p384
sVCrab
p385
Vx
p386
sV1196898944.0dxschafe
p387
Vx
p388
sVFrenchUndeadC
p389
Vx
p390
sVNAVY_DREADNOUGHT
p391
Vx
p392
sV1157094552.02jasyeung
p393
Vx
p394
sV1219425030.24mtucker
p395
Vx
p396
sVClawChief
p397
Vx
p398
sV1286922173.8gcarranza
p399
Vx
p400
sVMireKnife
p401
Vx
p402
sV1201028352.0dxschafe
p403
Vx
p404
sVHUNTER_CUTTER_SHARK
p405
Vx
p406
sV1244833920.0jloehrle
p407
Vx
p408
sVSKEL_SHADOW_CROW_FR
p409
Vx
p410
sVGuard
p411
Vx
p412
sV1201230131.11dxschafe
p413
Vx
p414
sVDragoon
p415
Vx
p416
sVSpray
p417
Vx
p418
sV1196904064.0dxschafe
p419
Vx
p420
sV1219277508.79mtucker
p421
Vx
p422
sVLookoutVoodooZombie
p423
Vx
p424
sVHUNTER_KILLYADED
p425
Vx
p426
sV1237497701.52piwanow
p427
Vx
p428
sVOfficerVoodooZombie
p429
Vx
p430
sV1286984549.68gcarranza
p431
Vx
p432
sV1227583229.75WDIG
p433
Vx
p434
sVCookVoodooZombie
p435
Vx
p436
sVEvanTheDigger
p437
Vx
p438
sV1175553664.0dxschafe
p439
Vx
p440
sVMercenary
p441
Vx
p442
sVBloodleach
p443
Vx
p444
sVNAVY_PREDATOR
p445
Vx
p446
sV1219339266.79mtucker
p447
Vx
p448
sV1202419919.16akelts
p449
Vx
p450
sV1227674362.91WDIG
p451
Vx
p452
sVGOLIATH
p453
Vx
p454
sVBlackheart
p455
Vx
p456
sVCadet
p457
Vx
p458
sV1219367627.94mtucker
p459
Vx
p460
sVFoulCrenshaw
p461
Vx
p462
sV1177714944.0mike
p463
Vx
p464
sVHUNTER_SCORNED_SIREN
p465
Vx
p466
sVSKEL_REVENANT
p467
Vx
p468
sV1169079172.34sdnaik
p469
Vx
p470
sV1244583168.0jloehrle0
p471
Vx
p472
sVHUNTER_FLYING_STORM
p473
Vx
p474
sV1176186151.42mike
p475
Vx
p476
sV1237499258.14piwanow
p477
Vx
p478
sVNAVY_BULWARK
p479
Vx
p480
sV1157097816.67jasyeung
p481
Vx
p482
sVThug
p483
Vx
p484
sVBonebreaker
p485
Vx
p486
sVHUNTER_TALLYHO
p487
Vx
p488
s.