(dp0
V1244657664.0jloehrle1
p1
I0
sVAngryVoodooZombie
p2
I0
sVHiredgun
p3
I0
sVCorpse
p4
I0
sVCarrionKnife
p5
I0
sVJOLLY_ROGER
p6
I0
sV1181607808.0dxschafe
p7
I0
sVCaptMudmoss
p8
I0
sVSwampTerror
p9
I0
sV1157098120.05jasyeung
p10
I0
sVDouse
p11
I0
sVDevilwing
p12
I0
sV1291327895.46jloehrle
p13
I0
sVHMS_INVINCIBLE
p14
I0
sVCrusherCrab
p15
I0
sV1219434293.16mtucker
p16
I0
sVSKEL_HELLHOUND_SP
p17
I0
sVNAVY_COLOSSUS
p18
I0
sV1196901888.0dxschafe
p19
I0
sV1232496514.28WDIG
p20
I0
sVFireBat
p21
I0
sVEITC_OGRE
p22
I0
sVPressGangVoodooZombie
p23
I0
sVThaddeusWoodworm
p24
I0
sVAlligator
p25
I0
sV1220906480.53mtucker
p26
I0
sVStoneCrab
p27
I0
sVHUNTER_CENTURY_HAWK
p28
I1
sVMarine
p29
I0
sVSilentStinger
p30
I0
sVDrench
p31
I0
sVEITC_CORSAIR
p32
I0
sVBat
p33
I0
sVNathanielGrimm
p34
I0
sVBigGator
p35
I0
sVSKEL_BLOOD_SCOURGE_SP
p36
I0
sV1186098688.0dxschafe
p37
I0
sVOfficer
p38
I0
sV1169075869.81mike
p39
I0
sVAssassin
p40
I0
sVKillerWasp
p41
I0
sVEITC_MARAUDER
p42
I0
sVSidShiver
p43
I0
sV1219352693.09mtucker
p44
I0
sVNAVY_VANGUARD
p45
I0
sVHUNTER_EN_GARDE
p46
I2
sVBayouGator
p47
I0
sVFLYING_DUTCHMAN
p48
I0
sVWillBurybones
p49
I0
sVHugeGator
p50
I0
sV1181605248.0dxschafe
p51
I0
sVManRipper
p52
I0
sVNAVY_FERRET
p53
I0
sVWasp
p54
I0
sVGiantCrab
p55
I0
sV1303260680.08jloehrle
p56
I0
sVDreadScorpion
p57
I0
sVEITC_BLOODHOUND
p58
I0
sVSoldierWasp
p59
I0
sVEITC_CORVETTE
p60
I0
sVSKEL_BLACK_HARBINGER
p61
I0
sVDamp
p62
I0
sVScorpion
p63
I0
sVNAVY_CENTURION
p64
I0
sV1219424341.05mtucker
p65
I0
sVMuck
p66
I0
sVCarlosCudgel
p67
I0
sV1303331892.2jloehrle
p68
I0
sVSnapDragon
p69
I0
sV1181606272.0dxschafe
p70
I0
sVThadIllFortune
p71
I0
sVHMS_VICTORY
p72
I0
sVCadaverCutlass
p73
I0
sVSKEL_HELLHOUND_FR
p74
I0
sVTwistedStump
p75
I0
sVMire
p76
I0
sVBowbreaker
p77
I0
sV1219428571.98mtucker
p78
I0
sVEITC_CONQUERER
p79
I0
sV1201109074.66dxschafe
p80
I0
sVSKEL_BLOOD_SCOURGE_FR
p81
I0
sVEITC_WARLORD
p82
I0
sV1201228098.28dxschafe
p83
I0
sVNAVY_GREYHOUND
p84
I0
sVGeoffreyPain
p85
I0
sV1216249894.26aapatel
p86
I0
sV1157098075.78jasyeung
p87
I0
sVFlytrap
p88
I0
sVEITC_BEHEMOTH
p89
I0
sV1181171584.0dxschafe0
p90
I0
sVJeremyColdhand
p91
I0
sVSKEL_SHADOW_CROW_SP
p92
I0
sVHUNTER_VENGEANCE
p93
I1
sVSKEL_PHANTOM
p94
I0
sVNAVY_PANTHER
p95
I0
sVWhitWidowmaker
p96
I0
sVSKEL_DEATH_OMEN
p97
I0
sVSludge
p98
I0
sVEITC_INTREPID
p99
I0
sVFiresting
p100
I0
sV1201224743.34dxschafe
p101
I0
sV1201025280.0dxschafe
p102
I0
sV1169077081.52mike
p103
I0
sVEITC_IRONWALL
p104
I0
sVCaptBriney
p105
I0
sVCorpseCutlass
p106
I0
sVTraitorGhost
p107
I0
sVSKEL_STORM_REAPER
p108
I0
sVAngryWasp
p109
I0
sV1203451240.81akelts
p110
I0
sVSHIP_OF_THE_LINE
p111
I0
sVMutineerGhost
p112
I0
sVFrenchUndeadA
p113
I0
sVGideonGrog
p114
I0
sVSpanishUndeadC
p115
I0
sV1219426331.38mtucker
p116
I0
sVRancidFlytrap
p117
I0
sVSpanishUndeadB
p118
I0
sVRageGhost
p119
I0
sVHenryFlint
p120
I0
sVAncientFlytrap
p121
I0
sVEITC_SENTINEL
p122
I0
sV1286991539.99gcarranza
p123
I0
sV1157098037.86jasyeung
p124
I0
sV1181260928.0dxschafe
p125
I0
sVRipTail
p126
I0
sV1201227181.3dxschafe
p127
I0
sV1165199931.31Shochet
p128
I0
sV1157098184.94jasyeung
p129
I0
sVEdwardLohand
p130
I0
sV1286991877.14gcarranza
p131
I0
sVDrool
p132
I0
sVSpanishUndeadD
p133
I0
sVFishSmall
p134
I0
sVHUNTER_RED_DERVISH
p135
I1
sVZombie
p136
I0
sVTrapjaw
p137
I0
sV1201226462.13dxschafe
p138
I0
sV1218760329.71mtucker
p139
I0
sV1157097924.52jasyeung
p140
I0
sVSpanishUndeadA
p141
I0
sV1201223902.67dxschafe
p142
I0
sVCadaver
p143
I0
sVQuestProp
p144
I0
sVHUNTER_BATTLEROYALE
p145
I2
sV1181260288.0dxschafe
p146
I0
sV1213983053.36aapatel
p147
I0
sVNAVY_KINGFISHER
p148
I0
sVGrunt
p149
I0
sVHMS_NEWCASTLE
p150
I0
sV1218760328.71mtucker
p151
I0
sV1196896512.0dxschafe
p152
I0
sVRockCrab
p153
I0
sVSwabbieVoodooZombie
p154
I0
sVSimonButcher
p155
I0
sVVeteran
p156
I0
sVVampireBat
p157
I0
sVRevenant
p158
I0
sVSlaveDriverVoodooZombie
p159
I0
sVDrip
p160
I0
sVMuckCutlass
p161
I0
sVCarrion
p162
I0
sVZachariahSharp
p163
I0
sVEITC_BARRACUDA
p164
I0
sVFishLarge
p165
I0
sV1216766113.92aapatel
p166
I0
sVClod
p167
I0
sVStump
p168
I0
sVNAVY_MONARCH
p169
I0
sVEITC_LEVIATHAN
p170
I0
sVDireScorpion
p171
I0
sVDeviousGhost
p172
I0
sVEITC_JUGGERNAUT
p173
I0
sVFrancisFaust
p174
I0
sVFrenchUndeadB
p175
I0
sVFishMed
p176
I0
sVFrenchUndeadD
p177
I0
sVBonecracker
p178
I0
sVSplatter
p179
I0
sVRabidBat
p180
I0
sVIanRamjaw
p181
I0
sVDrizzle
p182
I0
sVNAVY_MAN_O_WAR
p183
I0
sVStench
p184
I0
sV1196907776.0dxschafe0
p185
I0
sVHughBrandish
p186
I0
sVSandStalker
p187
I0
sVFrightfang
p188
I0
sVEITC_SEA_VIPER
p189
I0
sVPhineasFowl
p190
I0
sVMakeAPirate
p191
I0
sV1244832512.0jloehrle
p192
I0
sVSergeant
p193
I0
sVCrab
p194
I0
sV1196898944.0dxschafe
p195
I0
sVFrenchUndeadC
p196
I0
sVNAVY_DREADNOUGHT
p197
I0
sV1157094552.02jasyeung
p198
I0
sV1219425030.24mtucker
p199
I0
sVClawChief
p200
I0
sV1286922173.8gcarranza
p201
I0
sVMireKnife
p202
I0
sV1201028352.0dxschafe
p203
I0
sVHUNTER_CUTTER_SHARK
p204
I1
sV1244833920.0jloehrle
p205
I0
sVSKEL_SHADOW_CROW_FR
p206
I0
sVGuard
p207
I0
sV1201230131.11dxschafe
p208
I0
sVDragoon
p209
I0
sVSpray
p210
I0
sV1196904064.0dxschafe
p211
I0
sV1219277508.79mtucker
p212
I0
sVLookoutVoodooZombie
p213
I0
sVHUNTER_KILLYADED
p214
I1
sV1237497701.52piwanow
p215
I0
sVOfficerVoodooZombie
p216
I0
sV1286984549.68gcarranza
p217
I0
sV1227583229.75WDIG
p218
I0
sVCookVoodooZombie
p219
I0
sVEvanTheDigger
p220
I0
sV1175553664.0dxschafe
p221
I0
sVMercenary
p222
I0
sVBloodleach
p223
I0
sVNAVY_PREDATOR
p224
I0
sV1219339266.79mtucker
p225
I0
sV1202419919.16akelts
p226
I0
sV1227674362.91WDIG
p227
I0
sVGOLIATH
p228
I0
sVBlackheart
p229
I0
sVCadet
p230
I0
sV1219367627.94mtucker
p231
I0
sVFoulCrenshaw
p232
I0
sV1177714944.0mike
p233
I0
sVHUNTER_SCORNED_SIREN
p234
I1
sVSKEL_REVENANT
p235
I0
sV1169079172.34sdnaik
p236
I0
sV1244583168.0jloehrle0
p237
I0
sVHUNTER_FLYING_STORM
p238
I1
sV1176186151.42mike
p239
I0
sV1237499258.14piwanow
p240
I0
sVNAVY_BULWARK
p241
I0
sV1157097816.67jasyeung
p242
I0
sVThug
p243
I0
sVBonebreaker
p244
I0
sVHUNTER_TALLYHO
p245
I2
s.