(dp0
I2060
(lp1
I13713
aI1
aNaNaI1
aI0
aI0
aI0
aI0
aI0
aI0
aI0
aI80
aF0.25
aI2
aI15
aI0
aI0
aI0
aI0
aI1
aI0
aI3
aI0
aI0
aI26
aI0
aI0
aI1
aI0
aI0
aI1
aI3
aI0
aI-1
aI0
aF0.1
aI1
aI0
aI1
aI1
aI0
aI0
aI0
aI0
aI0
aI0
aI0
aI0
aI0
aVcutlass_stab
p2
aI0
aI1
aI1
aI0
aI0
asI2061
(lp3
I13713
aI1
aNaNaI1
aI0
aI0
aI0
aI0
aI0
aI0
aI0
aI80
aF0.25
aI2
aI15
aI0
aI0
aI0
aI0
aI1
aI0
aI0
aI0
aI0
aI26
aI0
aI0
aI1
aI0
aI0
aI1
aI3
aI0
aI-1
aI0
aF0.1
aI1
aI0
aI1
aI1
aI0
aI0
aI0
aI0
aI0
aI0
aI0
aI0
aI0
aVcutlass_stab
p4
aI0
aI1
aI1
aI0
aI0
asI2062
(lp5
I13713
aI1
aNaNaI1
aI0
aI0
aI0
aI0
aI0
aI0
aI0
aI80
aF0.25
aI2
aI15
aI0
aI0
aI0
aI0
aI1
aI0
aI0
aI0
aI0
aI26
aI0
aI0
aI1
aI0
aI0
aI1
aI3
aI0
aI-1
aI0
aF0.1
aI1
aI0
aI1
aI1
aI0
aI0
aI0
aI0
aI0
aI0
aI0
aI0
aI0
aVcutlass_stab
p6
aI0
aI1
aI1
aI0
aI0
asI2063
(lp7
I13713
aI1
aNaNaI1
aI0
aI0
aI0
aI0
aI0
aI0
aI0
aI80
aF0.25
aI2
aI120
aI0
aI0
aI0
aI0
aI1
aI0
aI0
aI0
aI0
aI21
aI0
aI0
aI1
aI0
aI0
aI1
aI10
aI2
aI-1
aI0
aF1.2
aI1
aI0
aI1
aI1
aI0
aI0
aI0
aI0
aI0
aI0
aI0
aI0
aI0
aVcutlass_stab
p8
aI8
aI1
aI1
aI0
aI0
asI2064
(lp9
I13713
aI1
aNaNaI1
aI0
aI0
aI0
aI0
aI0
aI0
aI0
aI80
aF0.25
aI2
aI15
aI0
aI0
aI0
aI0
aI1
aI0
aI0
aI0
aI0
aI26
aI0
aI0
aI1
aI0
aI0
aI1
aI3
aI0
aI-1
aI0
aF0.1
aI3
aI0
aI1
aI1
aI0
aI0
aI0
aI0
aI0
aI0
aI0
aI0
aI0
aVcutlass_stab
p10
aI0
aI1
aF1.25
aI0
aI0
asI2065
(lp11
I13713
aI1
aNaNaI1
aI0
aI0
aI0
aI0
aI0
aI0
aI0
aI80
aF0.25
aI2
aI120
aI0
aI0
aI0
aI0
aI1
aI0
aI0
aI0
aI0
aI5
aI0
aI0
aI1
aI0
aI0
aI1
aI10
aI2
aI-1
aI0
aF1.2
aI1
aI0
aI1
aI1
aI0
aI0
aI0
aI0
aI0
aI0
aI0
aI0
aI0
aVcutlass_stab
p12
aI8
aI1
aI1
aI0
aI0
asI2080
(lp13
I0
aI0
aNaNaI0
aI0
aI0
aI0
aI0
aI0
aI0
aI0
aI100
aI0
aI1
aI0
aI0
aI0
aI0
aI0
aI1
aI0
aI0
aI0
aI0
aI0
aI0
aI0
aI0
aI0
aI0
aI0
aI0
aI0
aI-1
aI0
aF0.1
aI1
aI0
aI1
aI1
aI0
aI0
aI0
aI0
aI0
aI0
aI0
aI1
aI1
aVsail_open_fire
p14
aI0
aI0
aI1
aF1.16
aI0
asI2081
(lp15
I0
aI0
aNaNaI0
aI0
aI0
aI0
aI0
aI0
aI0
aI0
aI100
aI0
aI0
aI0
aI0
aI0
aI0
aI0
aI1
aI0
aI0
aI0
aI0
aI0
aI0
aI0
aI0
aI0
aI0
aI0
aI0
aI0
aI-1
aI0
aF0.1
aI1
aI0
aI1
aI1
aI0
aI0
aI0
aI0
aI0
aI0
aI0
aI1
aI1
aVpistol_take_aim
p16
aI0
aI0
aI1
aI0
aI0
asI2100
(lp17
I0
aI0
aNaNaI0
aI0
aI0
aI0
aI0
aI0
aI0
aI0
aI100
aI0
aI0
aI0
aI0
aI0
aI0
aI0
aI1
aI0
aI0
aI0
aI0
aI0
aI0
aI0
aI0
aI0
aI0
aI0
aI0
aI0
aI-1
aI0
aF0.1
aI1
aI0
aI1
aI1
aI0
aI0
aI0
aI0
aI0
aI0
aI0
aI1
aI1
aVstaff_sparks
p18
aI0
aI0
aI1
aI0
aI0
asI2101
(lp19
I0
aI0
aNaNaI0
aI0
aI0
aI0
aI0
aI0
aI0
aI0
aI100
aI0
aI0
aI0
aI0
aI0
aI0
aI0
aI1
aI0
aI0
aI0
aI0
aI0
aI0
aI0
aI0
aI0
aI0
aI0
aI0
aI0
aI-1
aI0
aF0.1
aI1
aI0
aI1
aI0
aI0
aI0
aI0
aI0
aI0
aI0
aI0
aI1
aI1
aVstaff_sparks
p20
aI0
aI0
aI1
aI0
aI0
asI2102
(lp21
I0
aI0
aNaNaI0
aI0
aI0
aI0
aI0
aI0
aI0
aI0
aI100
aI0
aI0
aI0
aI0
aI0
aI0
aI0
aI1
aI0
aI0
aI0
aI0
aI0
aI0
aI0
aI0
aI0
aI0
aI0
aI0
aI0
aI-1
aI0
aF0.1
aI1
aI0
aI1
aI0
aI0
aI0
aI0
aI0
aI0
aI0
aI0
aI1
aI1
aVstaff_frostbeam
p22
aI0
aI0
aI1
aI0
aI0
asI2103
(lp23
I0
aI0
aNaNaI0
aI0
aI0
aI0
aI0
aI0
aI0
aI0
aI100
aI0
aI0
aI0
aI0
aI0
aI0
aI0
aI1
aI0
aI0
aI0
aI0
aI0
aI0
aI0
aI0
aI0
aI0
aI0
aI0
aI0
aI-1
aI0
aF0.1
aI1
aI0
aI1
aI0
aI0
aI0
aI0
aI0
aI0
aI0
aI0
aI1
aI1
aVstaff_pestilence
p24
aI0
aI0
aI1
aI0
aI0
asI2104
(lp25
I0
aI0
aNaNaI0
aI0
aI0
aI0
aI0
aI0
aI0
aI0
aI100
aI0
aI0
aI0
aI0
aI0
aI0
aI0
aI1
aI0
aI0
aI0
aI0
aI0
aI0
aI0
aI0
aI0
aI0
aI0
aI0
aI0
aI-1
aI0
aF0.1
aI1
aI0
aI1
aI0
aI0
aI0
aI0
aI0
aI0
aI0
aI0
aI1
aI1
aVstaff_fire
p26
aI0
aI0
aI1
aI0
aI0
asI2105
(lp27
I0
aI0
aNaNaI0
aI0
aI0
aI0
aI0
aI0
aI0
aI0
aI100
aI0
aI0
aI0
aI0
aI0
aI0
aI0
aI1
aI0
aI0
aI0
aI0
aI0
aI0
aI0
aI0
aI0
aI0
aI0
aI0
aI0
aI-1
aI0
aF0.1
aI1
aI0
aI1
aI0
aI0
aI0
aI0
aI0
aI0
aI0
aI0
aI1
aI1
aVstaff_deluge
p28
aI0
aI0
aI1
aI0
aI0
asI2106
(lp29
I0
aI0
aNaNaI0
aI0
aI0
aI0
aI0
aI0
aI0
aI0
aI100
aI0
aI0
aI0
aI0
aI0
aI0
aI0
aI1
aI0
aI0
aI0
aI0
aI0
aI0
aI0
aI0
aI0
aI0
aI0
aI0
aI0
aI-1
aI0
aF0.1
aI1
aI0
aI1
aI0
aI0
aI0
aI0
aI0
aI0
aI0
aI0
aI1
aI1
aVstaff_shockwave
p30
aI0
aI0
aI1
aI0
aI0
asI2120
(lp31
I0
aI0
aNaNaI0
aI0
aI0
aI0
aI0
aI0
aI0
aI0
aI100
aI0
aI1
aI0
aI0
aI0
aI0
aI0
aI1
aI0
aI0
aI0
aI0
aI0
aI0
aI0
aI0
aI0
aI0
aI0
aI0
aI0
aI-1
aI0
aF0.1
aI1
aI0
aI1
aI1
aI0
aI0
aI0
aI0
aI0
aI0
aI0
aI1
aI1
aVgrenade_throw
p32
aI0
aI2
aI1
aI2
aI0
asI2121
(lp33
I0
aI0
aNaNaI0
aI0
aI0
aI0
aI0
aI0
aI0
aI0
aI100
aI0
aI0
aI0
aI0
aI0
aI0
aI0
aI1
aI0
aI0
aI0
aI0
aI0
aI0
aI0
aI0
aI0
aI0
aI0
aI0
aI0
aI-1
aI0
aF0.1
aI1
aI0
aI1
aI1
aI0
aI0
aI0
aI0
aI0
aI0
aI0
aI1
aI1
aVgrenade_strength
p34
aI0
aI2
aI1
aI0
aI0
asI2140
(lp35
I13713
aI1
aNaNaI1
aI0
aI0
aI0
aI0
aI0
aI0
aI0
aI90
aF0.25
aI2
aI6
aI0
aI0
aI0
aI0
aI1
aI0
aI0
aI0
aI0
aI26
aI0
aI0
aI1
aI0
aI0
aI1
aI3
aI0
aI-1
aI0
aF0.1
aI1
aI0
aI1
aI1
aI0
aI0
aI0
aI0
aI0
aI0
aI0
aI0
aI0
aVcutlass_stab
p36
aI0
aI1
aI1
aI0
aI0
asI2141
(lp37
I13713
aI1
aNaNaI1
aI0
aI0
aI0
aI0
aI0
aI0
aI0
aI90
aF0.25
aI2
aI6
aI0
aI0
aI0
aI0
aI1
aI0
aI0
aI0
aI0
aI26
aI0
aI0
aI1
aI0
aI0
aI1
aI3
aI0
aI-1
aI0
aF0.1
aI1
aI0
aI1
aI1
aI0
aI0
aI0
aI0
aI0
aI0
aI0
aI0
aI0
aVcutlass_stab
p38
aI0
aI1
aI1
aI0
aI0
asI2142
(lp39
I13713
aI1
aNaNaI1
aI0
aI0
aI0
aI0
aI0
aI0
aI0
aI90
aF0.25
aI2
aI6
aI0
aI0
aI0
aI0
aI1
aI0
aI0
aI0
aI0
aI26
aI0
aI0
aI1
aI0
aI0
aI1
aI3
aI0
aI-1
aI0
aF0.1
aI1
aI0
aI1
aI1
aI0
aI0
aI0
aI0
aI0
aI0
aI0
aI0
aI0
aVcutlass_stab
p40
aI0
aI1
aF1.5
aI0
aI0
asI2143
(lp41
I13713
aI1
aNaNaI1
aI0
aI0
aI0
aI0
aI0
aI0
aI0
aI90
aF0.25
aI10
aI12
aI0
aI0
aI0
aI0
aI1
aI0
aI0
aI0
aI0
aI4
aI0
aI0
aI1
aI0
aI0
aI1
aI4
aI2
aI-1
aI0
aF0.1
aI1
aI0
aI1
aI1
aI0
aI0
aI0
aI0
aI0
aI0
aI0
aI0
aI0
aVcutlass_stab
p42
aI10
aI1
aF0.5
aI0
aI0
asI2144
(lp43
I13713
aI1
aNaNaI1
aI0
aI0
aI0
aI0
aI0
aI0
aI0
aI90
aF0.25
aI6
aI6
aI0
aI0
aI0
aI0
aI1
aI0
aI0
aI0
aI0
aI26
aI0
aI0
aI1
aI0
aI0
aI1
aI3
aI0
aI-1
aI0
aF0.1
aI1
aI0
aI1
aI1
aI0
aI0
aI0
aI0
aI0
aI0
aI0
aI0
aI0
aVcutlass_stab
p44
aI0
aI1
aI2
aI0
aI0
asI2145
(lp45
I13713
aI1
aNaNaI1
aI0
aI0
aI0
aI0
aI0
aI0
aI0
aI90
aF0.25
aI15
aI6
aI0
aI0
aI0
aI0
aI1
aI0
aI0
aI0
aI0
aI26
aI0
aI0
aI1
aI0
aI0
aI1
aI6
aI0
aI-1
aI0
aF0.1
aI1
aI0
aI1
aI1
aI0
aI0
aI0
aI0
aI0
aI0
aI0
aI0
aI0
aVcutlass_stab
p46
aI0
aI1
aF0.75
aI0
aI0
asI2160
(lp47
I13713
aI1
aNaNaI1
aI0
aI0
aI0
aI0
aI0
aI0
aI0
aI90
aF0.25
aI2
aI6
aI0
aI0
aI0
aI0
aI1
aI0
aI0
aI0
aI0
aI26
aI0
aI0
aI1
aI0
aI0
aI1
aI3
aI0
aI-1
aI0
aF0.1
aI1
aI0
aI1
aI1
aI0
aI0
aI0
aI0
aI0
aI0
aI0
aI0
aI0
aVcutlass_stab
p48
aI0
aI1
aI1
aI0
aI0
asI2161
(lp49
I13713
aI1
aNaNaI1
aI0
aI0
aI0
aI0
aI0
aI0
aI0
aI90
aF0.25
aI2
aI6
aI0
aI0
aI0
aI0
aI1
aI0
aI0
aI0
aI0
aI26
aI0
aI0
aI1
aI0
aI0
aI1
aI3
aI0
aI-1
aI0
aF0.1
aI1
aI0
aI1
aI1
aI0
aI0
aI0
aI0
aI0
aI0
aI0
aI0
aI0
aVcutlass_stab
p50
aI0
aI1
aI1
aI0
aI0
asI2162
(lp51
I13713
aI1
aNaNaI1
aI0
aI0
aI0
aI0
aI0
aI0
aI0
aI90
aF0.25
aI2
aI6
aI0
aI0
aI0
aI0
aI1
aI0
aI0
aI0
aI0
aI26
aI0
aI0
aI1
aI0
aI0
aI1
aI3
aI0
aI-1
aI0
aF0.1
aI1
aI0
aI1
aI1
aI0
aI0
aI0
aI0
aI0
aI0
aI0
aI0
aI0
aVcutlass_stab
p52
aI0
aI1
aF1.25
aI0
aI0
asI2163
(lp53
I13713
aI1
aNaNaI1
aI0
aI0
aI0
aI0
aI0
aI0
aI0
aI90
aF0.25
aI25
aI6
aI0
aI0
aI0
aI0
aI1
aI0
aI0
aI0
aI0
aI4
aI0
aI0
aI1
aI0
aI0
aI1
aI6
aI2
aI-1
aI0
aF0.1
aI1
aI0
aI1
aI1
aI0
aI0
aI0
aI0
aI0
aI0
aI0
aI0
aI0
aVcutlass_stab
p54
aI10
aI1
aF0.75
aI0
aI0
asI2164
(lp55
I13713
aI1
aNaNaI1
aI0
aI0
aI0
aI0
aI0
aI0
aI0
aI90
aF0.25
aI18
aI6
aI0
aI0
aI0
aI0
aI1
aI0
aI0
aI0
aI0
aI26
aI0
aI0
aI1
aI0
aI0
aI1
aI6
aI0
aI-1
aI0
aF0.1
aI1
aI0
aI1
aI1
aI0
aI0
aI0
aI0
aI0
aI0
aI0
aI0
aI0
aVcutlass_stab
p56
aI6
aI1
aF1.5
aI0
aI0
asI12405
(lp57
I13706
aI0
aNaNaI0
aI0
aI0
aI0
aI0
aI0
aI0
aI0
aI0
aF0.05
aI0
aI0
aI0
aI0
aI0
aI0
aI0
aI0
aI0
aI0
aI0
aI0
aI0
aI0
aI0
aI0
aI0
aI0
aI0
aI0
aI-1
aI0
aI0
aI0
aI0
aI3
aI0
aI0
aI0
aI0
aI0
aI0
aI0
aI0
aI0
aI0
aVdagger_blade_instinct
p58
aI0
aI0
aI1
aI0
aI0
asI12406
(lp59
I13706
aI2
aI14300
aNaI2
aI0
aI0
aI0
aI-10
aI0
aI0
aI0
aI80
aF0.25
aI15
aI50
aI0
aI0
aI0
aI0
aI1
aI0
aI0
aI1
aI1
aI7
aI0
aI0
aI1
aI0
aI1
aI1
aI6
aI0
aI25
aI0
aF0.8
aI1
aI0
aI2
aI1
aI0
aI0
aI0
aI0
aI0
aI0
aI0
aI1
aI1
aVdagger_throw
p60
aI16
aI0
aI1
aF1.83
aI0
asI12407
(lp61
I13706
aI2
aI14301
aNaI4
aI0
aI0
aI0
aI-20
aI0
aI0
aI0
aI80
aF0.25
aI15
aI50
aI0
aI0
aI0
aI0
aI1
aI0
aI0
aI0
aI0
aI5
aI0
aI0
aI1
aI0
aI1
aI1
aI20
aI2
aI25
aI0
aF0.8
aI1
aI0
aI2
aI1
aI0
aI0
aI0
aI0
aI0
aI0
aI0
aI1
aI1
aVdagger_adder
p62
aI8
aI0
aI1
aF1.83
aI0
asI12408
(lp63
I13706
aI2
aNaNaI6
aI0
aI0
aI0
aI0
aI0
aI0
aI0
aI80
aF0.25
aI25
aI12
aI0
aI0
aI0
aI0
aI1
aI0
aI0
aI1
aI1
aI19
aI0
aI0
aI1
aI0
aI0
aI1
aI6
aI0
aI-1
aI0
aF0.8
aI1
aI0
aI2
aI0
aI0
aI0
aI0
aI0
aI0
aI0
aI0
aI1
aI1
aVdagger_throw_dirt
p64
aI18
aI1
aI1
aF1.58
aI0
asI12409
(lp65
I13706
aI2
aI14302
aNaI8
aI0
aI0
aI0
aI-60
aI0
aI0
aI0
aI80
aF0.25
aI20
aI50
aI0
aI0
aI0
aI0
aI1
aI0
aI0
aI0
aI0
aI4
aI0
aI0
aI1
aI0
aI1
aI1
aI6
aI2
aI25
aI0
aF0.8
aI1
aI0
aI2
aI1
aI0
aI0
aI0
aI0
aI0
aI0
aI0
aI0
aI0
aVdagger_sidewinder
p66
aI10
aI0
aI1
aI1
aI0
asI12410
(lp67
I13706
aI2
aI14303
aNaI10
aI0
aI0
aI0
aI-120
aI0
aI0
aI0
aI80
aF0.25
aI45
aI50
aI0
aI0
aI0
aI0
aI1
aI0
aI2
aI1
aI1
aI0
aI0
aI0
aI1
aI0
aI0
aI0
aI0
aI0
aI25
aI0
aF0.8
aI3
aI0
aI2
aI0
aI0
aI0
aI0
aI0
aI0
aI0
aI0
aI0
aI0
aVdagger_vipers_nest
p68
aI30
aI2
aI1
aF0.833
aI0
asI2180
(lp69
I13713
aI1
aNaNaI1
aI0
aI0
aI0
aI0
aI0
aI0
aI0
aI90
aF0.25
aI2
aI6
aI0
aI0
aI0
aI0
aI1
aI0
aI0
aI0
aI0
aI26
aI0
aI0
aI1
aI0
aI0
aI1
aI3
aI0
aI-1
aI0
aF0.1
aI1
aI0
aI1
aI1
aI0
aI0
aI0
aI0
aI0
aI0
aI0
aI0
aI0
aVcutlass_stab
p70
aI0
aI1
aI1
aI0
aI0
asI2181
(lp71
I13713
aI1
aNaNaI1
aI0
aI0
aI0
aI0
aI0
aI0
aI0
aI90
aF0.25
aI2
aI6
aI0
aI0
aI0
aI0
aI1
aI0
aI0
aI0
aI0
aI26
aI0
aI0
aI1
aI0
aI0
aI1
aI3
aI0
aI-1
aI0
aF0.1
aI1
aI0
aI1
aI1
aI0
aI0
aI0
aI0
aI0
aI0
aI0
aI0
aI0
aVcutlass_stab
p72
aI0
aI1
aI1
aI0
aI0
asI2182
(lp73
I13713
aI1
aNaNaI1
aI0
aI0
aI0
aI0
aI0
aI0
aI0
aI90
aF0.25
aI20
aI10
aI10
aI0
aI0
aI0
aI1
aI1
aI1
aI0
aI0
aI14
aI0
aI0
aI1
aI0
aI0
aI1
aI4
aI0
aI-1
aI0
aF0.1
aI1
aI0
aI1
aI1
aI0
aI0
aI0
aI0
aI0
aI0
aI0
aI0
aI0
aVcutlass_stab
p74
aI0
aI1
aF0.8
aI0
aI0
asI2183
(lp75
I13713
aI1
aNaNaI1
aI0
aI0
aI0
aI0
aI0
aI0
aI0
aI90
aF0.25
aI15
aI6
aI0
aI0
aI0
aI0
aI1
aI0
aI0
aI0
aI0
aI26
aI0
aI0
aI1
aI0
aI0
aI1
aI3
aI0
aI-1
aI0
aF0.1
aI4
aI0
aI1
aI1
aI0
aI0
aI0
aI0
aI0
aI0
aI0
aI0
aI0
aVcutlass_stab
p76
aI0
aI1
aF1.5
aI0
aI0
asI2200
(lp77
I13713
aI1
aNaNaI1
aI0
aI0
aI0
aI0
aI0
aI0
aI0
aI90
aF0.25
aI2
aI6
aI0
aI0
aI0
aI0
aI1
aI0
aI0
aI0
aI0
aI26
aI0
aI0
aI1
aI0
aI0
aI1
aI3
aI0
aI-1
aI0
aF0.1
aI1
aI0
aI1
aI1
aI0
aI0
aI0
aI0
aI0
aI0
aI0
aI0
aI0
aVcutlass_stab
p78
aI0
aI1
aI1
aI0
aI0
asI2201
(lp79
I13713
aI1
aNaNaI1
aI0
aI0
aI0
aI0
aI0
aI0
aI0
aI90
aF0.25
aI2
aI6
aI0
aI0
aI0
aI0
aI1
aI0
aI0
aI0
aI0
aI26
aI0
aI0
aI1
aI0
aI0
aI1
aI3
aI0
aI-1
aI0
aF0.1
aI1
aI0
aI1
aI1
aI0
aI0
aI0
aI0
aI0
aI0
aI0
aI0
aI0
aVcutlass_stab
p80
aI0
aI1
aI1
aI0
aI0
asI2202
(lp81
I13713
aI1
aNaNaI1
aI0
aI0
aI0
aI0
aI0
aI0
aI0
aI90
aF0.25
aI25
aI6
aI0
aI0
aI0
aI0
aI1
aI0
aI0
aI0
aI0
aI5
aI0
aI0
aI1
aI0
aI0
aI1
aI12
aI2
aI-1
aI0
aF0.1
aI1
aI0
aI1
aI1
aI0
aI0
aI0
aI0
aI0
aI0
aI0
aI0
aI0
aVcutlass_stab
p82
aI0
aI1
aF0.25
aI0
aI0
asI2203
(lp83
I13713
aI1
aNaNaI1
aI0
aI0
aI0
aI0
aI0
aI0
aI0
aI90
aF0.25
aI25
aI6
aI0
aI0
aI0
aI0
aI1
aI0
aI0
aI0
aI0
aI14
aI0
aI0
aI1
aI0
aI0
aI1
aI6
aI0
aI-1
aI0
aF0.1
aI1
aI0
aI1
aI1
aI0
aI0
aI0
aI0
aI0
aI0
aI0
aI0
aI0
aVcutlass_stab
p84
aI0
aI1
aF1.25
aI0
aI0
asI2220
(lp85
I13712
aI5
aNaNaI1
aI1
aI0
aI0
aI0
aI0
aI0
aI0
aI100
aI0
aI0
aI-1
aI0
aI0
aI0
aI0
aI0
aI0
aI0
aI0
aI0
aI0
aI0
aI0
aI0
aI0
aI0
aI0
aI0
aI0
aI-1
aI0
aI0
aI1
aI0
aI1
aI1
aI0
aI0
aI0
aI0
aI0
aI0
aI0
aI1
aI1
aVcannon_shoot
p86
aI6
aI1
aI1
aI0
aI0
asI2221
(lp87
I13712
aI5
aNaNaI1
aI1
aI0
aI0
aI0
aI0
aI0
aI0
aI100
aI0
aI0
aI-1
aI0
aI0
aI0
aI0
aI0
aI0
aI0
aI0
aI0
aI0
aI0
aI0
aI0
aI0
aI0
aI0
aI0
aI0
aI-1
aI0
aI0
aI1
aI0
aI1
aI1
aI0
aI0
aI0
aI0
aI0
aI0
aI0
aI1
aI1
aVcannon_shoot
p88
aI6
aI1
aI1
aI0
aI0
asI2238
(lp89
I13703
aI1
aNaNaI0
aI0
aI0
aI0
aI0
aI0
aI0
aI0
aI100
aF0.25
aI20
aI0
aI0
aI0
aI1
aI0
aI1
aI0
aI0
aI0
aI0
aI159
aI0
aI0
aI0
aI0
aI0
aI0
aI12
aI0
aI-1
aI0
aF0.6
aI1
aI0
aI5
aI0
aI0
aI0
aI0
aI0
aI0
aI0
aI0
aI1
aI1
aVcutlass_parry
p90
aI45
aI0
aI1
aF1.42
aI0
asI2239
(lp91
I13703
aI1
aNaNaI2
aI0
aI0
aI0
aI-200
aI0
aI0
aI0
aI100
aF0.25
aI15
aI6
aI0
aI0
aI0
aI0
aI1
aI0
aI0
aI1
aI1
aI156
aI0
aI0
aI1
aI0
aI0
aI1
aI6
aI0
aI-1
aI0
aF0.5
aI2
aI0
aI5
aI0
aI0
aI0
aI0
aI0
aI0
aI0
aI0
aI0
aI1
aVdagger_cut
p92
aI42
aI1
aF1.5
aI1
aI0
asI2240
(lp93
I13703
aI1
aNaNaI1
aI0
aI0
aI0
aI-30
aI0
aI0
aI0
aI80
aF0.25
aI2
aI6
aI0
aI0
aI0
aI0
aI1
aI0
aI0
aI0
aI0
aI26
aI0
aI0
aI1
aI0
aI0
aI1
aI6
aI0
aI-1
aI0
aF0.22
aI1
aI0
aI1
aI1
aI0
aI0
aI0
aI0
aI0
aI0
aI0
aI0
aI0
aVcutlass_finesse
p94
aI3
aI1
aI1
aI1
aI0
asI2241
(lp95
I13703
aI1
aNaNaI1
aI0
aI0
aI0
aI-30
aI0
aI0
aI0
aI100
aF0.25
aI2
aI6
aI0
aI0
aI0
aI0
aI1
aI0
aI0
aI0
aI0
aI26
aI0
aI0
aI1
aI0
aI0
aI1
aI3
aI0
aI-1
aI0
aF0.22
aI2
aI0
aI1
aI1
aI0
aI0
aI0
aI0
aI0
aI0
aI0
aI0
aI0
aVcutlass_finesse
p96
aI1
aI1
aF1.2
aI1
aI0
asI2242
(lp97
I13703
aI1
aNaNaI1
aI0
aI0
aI0
aI-30
aI0
aI0
aI0
aI95
aF0.25
aI2
aI10
aI0
aI0
aI0
aI0
aI1
aI0
aI3
aI0
aI0
aI7
aI0
aI0
aI1
aI0
aI0
aI1
aI5
aI0
aI-1
aI0
aF0.22
aI1
aI0
aI1
aI1
aI0
aI0
aI0
aI0
aI0
aI0
aI0
aI0
aI0
aVcutlass_finesse
p98
aI29
aI1
aF1.2
aI1
aI0
asI2243
(lp99
I13703
aI1
aNaNaI1
aI0
aI0
aI0
aI-30
aI0
aI0
aI0
aI100
aF0.25
aI2
aI10
aI0
aI0
aI0
aI0
aI1
aI0
aI3
aI0
aI0
aI26
aI0
aI0
aI1
aI0
aI0
aI1
aI3
aI0
aI-1
aI0
aF0.22
aI1
aI0
aI1
aI1
aI0
aI0
aI0
aI0
aI0
aI0
aI0
aI0
aI0
aVcutlass_finesse
p100
aI29
aI1
aF0.75
aI1
aI0
asI2244
(lp101
I13703
aI1
aNaNaI1
aI0
aI0
aI0
aI-100
aI0
aI0
aI0
aI80
aF0.25
aI10
aI40
aI0
aI0
aI0
aI0
aI1
aI0
aI2
aI0
aI0
aI26
aI0
aI0
aI1
aI0
aI0
aI1
aI3
aI0
aI-1
aI0
aI1
aI1
aI0
aI1
aI0
aI0
aI0
aI0
aI0
aI0
aI0
aI0
aI0
aI0
aVdagger_dodge
p102
aI3
aI1
aI2
aF1.5
aI0
asI2245
(lp103
I13703
aI1
aNaNaI1
aI0
aI0
aI0
aI-30
aI0
aI0
aI0
aI100
aF0.25
aI2
aI6
aI0
aI0
aI0
aI0
aI1
aI0
aI0
aI0
aI0
aI26
aI0
aI0
aI1
aI0
aI0
aI1
aI3
aI0
aI-1
aI0
aF0.22
aI3
aI0
aI1
aI1
aI0
aI0
aI0
aI0
aI0
aI0
aI0
aI0
aI0
aVcutlass_finesse
p104
aI1
aI1
aI1
aI1
aI0
asI2246
(lp105
I13703
aI1
aNaNaI1
aI0
aI0
aI0
aI-30
aI0
aI0
aI0
aI50
aF0.25
aI10
aI6
aI0
aI0
aI0
aI0
aI1
aI0
aI0
aI0
aI0
aI4
aI0
aI0
aI1
aI0
aI0
aI1
aI5
aI2
aI-1
aI0
aF0.22
aI1
aI0
aI1
aI1
aI0
aI0
aI0
aI0
aI0
aI0
aI0
aI0
aI0
aVcutlass_finesse
p106
aI1
aI1
aF1.5
aI1
aI0
asI2247
(lp107
I13703
aI1
aNaNaI1
aI0
aI0
aI0
aI-30
aI0
aI0
aI0
aI100
aF0.25
aI6
aI6
aI0
aI0
aI0
aI0
aI1
aI0
aI0
aI0
aI0
aI26
aI0
aI0
aI1
aI0
aI0
aI1
aI4
aI0
aI-1
aI0
aF0.22
aI3
aI0
aI1
aI1
aI0
aI0
aI0
aI0
aI0
aI0
aI0
aI0
aI0
aVcutlass_finesse
p108
aI1
aI1
aI2
aI1
aI0
asI2248
(lp109
I13703
aI1
aNaNaI1
aI0
aI0
aI0
aI-30
aI0
aI0
aI0
aI100
aF0.25
aI10
aI6
aI0
aI0
aI0
aI0
aI1
aI0
aI0
aI0
aI0
aI14
aI0
aI0
aI1
aI0
aI0
aI1
aI3
aI0
aI-1
aI0
aF0.22
aI1
aI0
aI1
aI1
aI0
aI0
aI0
aI0
aI0
aI0
aI0
aI0
aI0
aVcutlass_finesse
p110
aI1
aI1
aF0.75
aI1
aI0
asI2250
(lp111
I13703
aI1
aNaNaI1
aI0
aI0
aI0
aI0
aI0
aI0
aI0
aI100
aF0.25
aI2
aI7
aI0
aI0
aI0
aI0
aI1
aI0
aI0
aI0
aI0
aI0
aI0
aI0
aI0
aI0
aI0
aI0
aI0
aI0
aI-1
aI0
aF0.22
aI1
aI0
aI1
aI1
aI0
aI0
aI0
aI0
aI0
aI0
aI0
aI0
aI0
aVcutlass_finesse
p112
aI1
aI1
aI1
aI1
aI0
asI2251
(lp113
I13703
aI1
aNaNaI1
aI0
aI0
aI0
aI0
aI0
aI0
aI0
aI80
aF0.25
aI2
aI7
aI0
aI0
aI0
aI0
aI1
aI0
aI0
aI0
aI0
aI0
aI0
aI0
aI0
aI0
aI0
aI0
aI0
aI0
aI-1
aI0
aF0.22
aI2
aI0
aI1
aI1
aI0
aI0
aI0
aI0
aI0
aI0
aI0
aI0
aI0
aVcutlass_finesse
p114
aI1
aI1
aF0.75
aI1
aI0
asI2252
(lp115
I13703
aI1
aNaNaI1
aI0
aI0
aI0
aI0
aI0
aI0
aI0
aI100
aF0.25
aI2
aI7
aI0
aI0
aI0
aI0
aI1
aI0
aI0
aI0
aI0
aI0
aI0
aI0
aI0
aI0
aI0
aI0
aI0
aI0
aI-1
aI0
aF0.44
aI1
aI0
aI1
aI1
aI0
aI0
aI0
aI0
aI0
aI0
aI0
aI0
aI0
aVcutlass_finesse
p116
aI1
aI1
aI1
aI1
aI0
asI2253
(lp117
I13703
aI1
aNaNaI1
aI0
aI0
aI0
aI0
aI0
aI0
aI0
aI100
aF0.25
aI6
aI7
aI0
aI0
aI0
aI0
aI1
aI0
aI0
aI0
aI0
aI4
aI0
aI0
aI0
aI0
aI0
aI1
aI10
aI2
aI-1
aI0
aF0.22
aI1
aI0
aI1
aI1
aI0
aI0
aI0
aI0
aI0
aI0
aI0
aI0
aI0
aVcutlass_finesse
p118
aI1
aI1
aI1
aI1
aI0
asI2254
(lp119
I13703
aI1
aNaNaI1
aI0
aI0
aI0
aI0
aI0
aI0
aI0
aI75
aF0.25
aI8
aI7
aI0
aI0
aI0
aI0
aI1
aI0
aI0
aI0
aI0
aI4
aI0
aI0
aI0
aI0
aI0
aI1
aI10
aI2
aI-1
aI0
aF0.22
aI2
aI0
aI1
aI1
aI0
aI0
aI0
aI0
aI0
aI0
aI0
aI0
aI0
aVcutlass_finesse
p120
aI1
aI1
aF0.75
aI1
aI0
asI2256
(lp121
I13703
aI1
aNaNaI1
aI0
aI0
aI0
aI0
aI0
aI0
aI0
aI80
aF0.25
aI10
aI7
aI0
aI0
aI0
aI0
aI1
aI0
aI0
aI1
aI1
aI0
aI0
aI0
aI0
aI0
aI0
aI0
aI0
aI0
aI-1
aI0
aF0.8
aI1
aI0
aI1
aI1
aI0
aI0
aI0
aI0
aI0
aI0
aI0
aI0
aI0
aVcutlass_finesse
p122
aI1
aI1
aF0.75
aI1
aI0
asI2257
(lp123
I13703
aI1
aNaNaI1
aI0
aI0
aI0
aI0
aI0
aI0
aI0
aI100
aF0.25
aI12
aI7
aI0
aI0
aI0
aI0
aI1
aI0
aI0
aI0
aI0
aI0
aI0
aI0
aI0
aI0
aI0
aI0
aI0
aI0
aI-1
aI0
aF0.22
aI4
aI0
aI1
aI1
aI0
aI0
aI0
aI0
aI0
aI0
aI0
aI0
aI0
aVcutlass_finesse
p124
aI1
aI1
aI2
aI1
aI0
asI12500
(lp125
I13707
aI4
aNaNaI2
aI1
aI0
aI0
aI-20
aI0
aI0
aI0
aI100
aF0.25
aI2
aI200
aI0
aI1
aI0
aI0
aI1
aI0
aI0
aI0
aI0
aI0
aI0
aI0
aI0
aI0
aI0
aI0
aI0
aI0
aI-1
aI0
aI0
aI1
aI0
aI1
aI1
aI0
aI0
aI0
aI0
aI0
aI0
aI0
aI1
aI1
aVgrenade_grenadier
p126
aI0
aI2
aI1
aI2
aI0
asI12501
(lp127
I13707
aI4
aNaNaF1.5
aI1
aI0
aI0
aI-90
aI0
aI0
aI0
aI100
aF0.25
aI1
aI50
aI10
aI1
aI0
aI0
aI1
aI40
aI1
aI0
aI0
aI0
aI0
aI0
aI0
aI0
aI0
aI0
aI0
aI0
aI-1
aI0
aI0
aI1
aI1
aI2
aI1
aI0
aI0
aI0
aI0
aI0
aI0
aI0
aI1
aI1
aVgrenade_throw
p128
aI0
aI2
aI1
aI0
aI0
asI12502
(lp129
I13707
aI4
aI14101
aNaF1.5
aI1
aI0
aI0
aI-50
aI0
aI0
aI0
aI100
aF0.25
aI1
aI50
aI20
aI1
aI0
aI0
aI1
aI40
aI1
aI0
aI0
aI7
aI0
aI0
aI0
aI0
aI0
aI1
aI10
aI0
aI25
aI0
aI0
aI1
aI1
aI2
aI1
aI0
aI0
aI0
aI0
aI0
aI0
aI0
aI1
aI1
aVgrenade_flameburst
p130
aI0
aI2
aI1
aI0
aI0
asI12503
(lp131
I13707
aI4
aI14102
aNaI2
aI1
aI0
aI0
aI-50
aI0
aI0
aI0
aI100
aF0.25
aI1
aI50
aI10
aI1
aI0
aI0
aI1
aI40
aI1
aI0
aI0
aI3
aI0
aI0
aI0
aI0
aI0
aI1
aI20
aI2
aI25
aI0
aI0
aI1
aI1
aI2
aI1
aI0
aI0
aI0
aI0
aI0
aI0
aI0
aI0
aI0
aVgrenade_explosion
p132
aI9
aI2
aI1
aI0
aI0
asI12504
(lp133
I13707
aI4
aI14103
aNaI2
aI1
aI0
aI0
aI0
aI0
aI0
aI0
aI100
aF0.25
aI1
aI50
aI14
aI1
aI0
aI0
aI1
aI40
aI1
aI0
aI0
aI9
aI0
aI0
aI0
aI0
aI0
aI1
aI10
aI0
aI15
aI0
aI0
aI1
aI1
aI2
aI1
aI0
aI0
aI0
aI0
aI0
aI0
aI0
aI0
aI0
aVgrenade_smokecloud
p134
aI0
aI2
aI1
aI0
aI0
asI12505
(lp135
I13707
aI4
aI14105
aNaI2
aI1
aI0
aI0
aI-150
aI0
aI0
aI0
aI100
aF0.25
aI1
aI10
aI20
aI1
aI0
aI0
aI1
aI40
aI1
aI0
aI0
aI7
aI0
aI0
aI0
aI0
aI0
aI1
aI3
aI0
aI10
aI0
aI0
aI1
aI1
aI2
aI0
aI0
aI0
aI0
aI0
aI0
aI0
aI0
aI0
aI0
aVgrenade_siege
p136
aI0
aI2
aI1
aI0
aI0
asI12506
(lp137
I13707
aI4
aNaNaI2
aI1
aI0
aI0
aI-40
aI0
aI0
aI0
aI100
aF0.25
aI2
aI400
aI0
aI1
aI0
aI0
aI1
aI0
aI0
aI0
aI0
aI0
aI0
aI0
aI0
aI0
aI0
aI0
aI0
aI0
aI-1
aI2
aI0
aI1
aI0
aI1
aI0
aI0
aI0
aI0
aI0
aI0
aI0
aI0
aI1
aI1
aVgrenade_strength
p138
aI0
aI2
aI1
aF1.875
aI0
asI12507
(lp139
I13707
aI0
aNaNaI0
aI0
aI0
aI0
aI0
aI0
aI0
aI0
aI0
aF0.1
aI0
aI0
aI0
aI0
aI0
aI0
aI0
aI0
aI0
aI0
aI0
aI0
aI0
aI0
aI0
aI0
aI0
aI0
aI0
aI0
aI-1
aI0
aI0
aI0
aI0
aI3
aI0
aI0
aI0
aI0
aI0
aI0
aI0
aI0
aI1
aI1
aVgrenade_determination2
p140
aI0
aI0
aI1
aI0
aI0
asI12508
(lp141
I13707
aI0
aNaNaI0
aI0
aI0
aI0
aI0
aI0
aI0
aI0
aI0
aF0.1
aI0
aI0
aI0
aI0
aI0
aI0
aI0
aI0
aI0
aI0
aI0
aI0
aI0
aI0
aI0
aI0
aI0
aI0
aI0
aI0
aI-1
aI0
aI0
aI0
aI0
aI3
aI0
aI0
aI0
aI0
aI0
aI0
aI0
aI0
aI0
aI0
aVgrenade_demolition
p142
aI0
aI0
aI1
aI0
aI0
asI12509
(lp143
I13707
aI0
aNaNaI0
aI0
aI0
aI0
aI0
aI0
aI0
aI0
aI0
aF0.03
aI0
aI0
aI0
aI0
aI0
aI0
aI0
aI0
aI0
aI0
aI0
aI0
aI0
aI0
aI0
aI0
aI0
aI0
aI0
aI0
aI-1
aI0
aI0
aI0
aI0
aI3
aI0
aI0
aI0
aI0
aI0
aI0
aI0
aI0
aI0
aI0
aVgrenade_determination
p144
aI0
aI0
aI1
aI0
aI0
asI12510
(lp145
I13707
aI0
aNaNaI0
aI0
aI0
aI0
aI0
aI0
aI0
aI0
aI0
aF0.1
aI0
aI0
aI0
aI0
aI0
aI0
aI0
aI0
aI0
aI0
aI0
aI0
aI0
aI0
aI0
aI0
aI0
aI0
aI0
aI0
aI-1
aI0
aI0
aI0
aI0
aI3
aI0
aI0
aI0
aI0
aI0
aI0
aI0
aI0
aI0
aI0
aVcannon_toughness
p146
aI0
aI0
aI1
aI0
aI0
asI2271
(lp147
I13706
aI2
aNaI12400
aI4
aI0
aI0
aI0
aI-9
aI0
aI0
aI0
aI80
aF0.25
aF0.5
aI50
aI0
aI0
aI0
aI0
aI1
aI0
aI0
aI0
aI0
aI26
aI0
aI0
aI1
aI0
aI1
aI1
aI3
aI0
aI-1
aI0
aF0.8
aI1
aI0
aI1
aI1
aI0
aI0
aI0
aI0
aI0
aI0
aI0
aI0
aI0
aVdagger_throw
p148
aI16
aI0
aI1
aI1
aI0
asI2272
(lp149
I13706
aI2
aNaI12401
aI4
aI0
aI0
aI0
aI-20
aI0
aI0
aI0
aI80
aF0.25
aF0.5
aI50
aI0
aI0
aI0
aI0
aI1
aI0
aI0
aI0
aI0
aI26
aI0
aI0
aI1
aI0
aI1
aI1
aI3
aI0
aI-1
aI0
aF0.8
aI1
aI0
aI1
aI1
aI0
aI0
aI0
aI0
aI0
aI0
aI0
aI0
aI0
aVdagger_sidewinder
p150
aI16
aI0
aI1
aI1
aI0
asI2273
(lp151
I13706
aI2
aNaI12402
aI4
aI0
aI0
aI0
aI-33
aI0
aI0
aI0
aI80
aF0.25
aF0.5
aI50
aI0
aI0
aI0
aI0
aI1
aI0
aI0
aI0
aI0
aI26
aI0
aI0
aI1
aI0
aI1
aI1
aI3
aI0
aI-1
aI0
aF0.8
aI1
aI0
aI1
aI1
aI0
aI0
aI0
aI0
aI0
aI0
aI0
aI0
aI0
aVdagger_impale
p152
aI16
aI0
aI1
aI1
aI0
asI2274
(lp153
I13706
aI2
aNaI12403
aI4
aI0
aI0
aI0
aI-51
aI0
aI0
aI0
aI80
aF0.25
aF0.5
aI50
aI0
aI0
aI0
aI0
aI1
aI0
aI0
aI0
aI0
aI26
aI0
aI0
aI1
aI0
aI1
aI1
aI3
aI0
aI-1
aI0
aF0.8
aI1
aI0
aI1
aI1
aI0
aI0
aI0
aI0
aI0
aI0
aI0
aI0
aI0
aVdagger_vipers_nest
p154
aI16
aI0
aI1
aI1
aI0
asI2275
(lp155
I13706
aI2
aNaNaI4
aI0
aI0
aI0
aI-50
aI0
aI0
aI0
aI80
aF0.25
aI60
aI30
aI30
aI0
aI0
aI0
aI1
aI0
aI1
aI0
aI0
aI164
aI0
aI0
aI0
aI0
aI1
aI1
aI3
aI0
aI-1
aI0
aF0.8
aI1
aI0
aI1
aI1
aI0
aI0
aI0
aI0
aI0
aI0
aI0
aI0
aI0
aVpir_t_gui_amo_can_iceshot
p156
aI13
aI2
aI1
aI1
aI1
asI2280
(lp157
I13706
aI2
aNaNaI1
aI0
aI0
aI0
aI0
aI0
aI0
aI0
aI80
aF0.25
aI5
aI100
aI0
aI0
aI0
aI0
aI1
aI0
aI0
aI0
aI0
aI0
aI0
aI0
aI1
aI0
aI1
aI0
aI0
aI0
aI-1
aI0
aF0.8
aI1
aI0
aI2
aI1
aI0
aI0
aI0
aI0
aI0
aI0
aI0
aI0
aI0
aVdagger_throw
p158
aI16
aI0
aI1
aF1.83
aI0
asI2281
(lp159
I13706
aI2
aNaNaI1
aI0
aI0
aI0
aI0
aI0
aI0
aI0
aI80
aF0.25
aI15
aI100
aI0
aI0
aI0
aI0
aI1
aI0
aI0
aI0
aI0
aI5
aI0
aI0
aI1
aI0
aI1
aI1
aI10
aI2
aI-1
aI0
aF0.8
aI1
aI0
aI2
aI1
aI0
aI0
aI0
aI0
aI0
aI0
aI0
aI0
aI0
aVdagger_adder
p160
aI8
aI0
aF0.75
aF1.83
aI0
asI2282
(lp161
I13706
aI2
aNaNaI1
aI0
aI0
aI0
aI0
aI0
aI0
aI0
aI80
aF0.25
aI30
aI100
aI0
aI0
aI0
aI0
aI1
aI0
aI0
aI0
aI0
aI14
aI0
aI0
aI1
aI0
aI1
aI1
aI4
aI0
aI-1
aI0
aF0.8
aI1
aI0
aI2
aI1
aI0
aI0
aI0
aI0
aI0
aI0
aI0
aI0
aI0
aVdagger_sidewinder
p162
aI10
aI0
aF0.75
aI1
aI0
asI2283
(lp163
I13706
aI2
aNaNaI1
aI0
aI0
aI0
aI0
aI0
aI0
aI0
aI80
aF0.25
aI30
aI100
aI0
aI0
aI0
aI0
aI1
aI0
aI0
aI1
aI1
aI26
aI0
aI0
aI1
aI0
aI1
aI1
aI3
aI0
aI-1
aI0
aF0.8
aI1
aI0
aI2
aI1
aI0
aI0
aI0
aI0
aI0
aI0
aI0
aI0
aI0
aVdagger_throw
p164
aI16
aI0
aI1
aI1
aI0
asI2284
(lp165
I13706
aI1
aNaNaI0
aI0
aI0
aI0
aI-150
aI0
aI0
aI0
aI100
aF0.25
aI15
aI12
aI0
aI0
aI0
aI0
aI1
aI0
aI0
aI0
aI0
aI0
aI0
aI0
aI1
aI0
aI0
aI0
aI0
aI0
aI-1
aI0
aI0
aI1
aI0
aI1
aI0
aI0
aI0
aI0
aI0
aI0
aI0
aI0
aI0
aI0
aVdagger_swipe
p166
aI6
aI1
aI1
aI1
aI0
asI2285
(lp167
I13706
aI1
aNaNaI4
aI0
aI0
aI0
aI-100
aI0
aI0
aI0
aI100
aF0.25
aI30
aI6
aI0
aI0
aI0
aI0
aI1
aI0
aI0
aI0
aI0
aI26
aI0
aI0
aI1
aI0
aI1
aI1
aI6
aI0
aI-1
aI0
aF0.8
aI3
aI0
aI5
aI1
aI0
aI0
aI0
aI0
aI0
aI0
aI0
aI0
aI0
aVcutlass_flourish
p168
aI14
aI0
aI1
aI1
aI0
asI2286
(lp169
I13706
aI2
aNaNaI2
aI0
aI0
aI0
aI-80
aI0
aI0
aI0
aI80
aF0.25
aI20
aI50
aI0
aI0
aI0
aI0
aI1
aI0
aI0
aI1
aI1
aI7
aI0
aI0
aI1
aI0
aI1
aI1
aI8
aI0
aI-1
aI0
aF0.8
aI3
aI0
aI5
aI1
aI0
aI0
aI0
aI0
aI0
aI0
aI0
aI1
aI1
aVdagger_blade_instinct
p170
aI16
aI0
aI1
aF1.83
aI0
asI2287
(lp171
I13706
aI2
aNaNaI4
aI0
aI0
aI0
aI-70
aI0
aI0
aI0
aI80
aF0.25
aI20
aI30
aI30
aI0
aI0
aI0
aI1
aI0
aI1
aI0
aI0
aI26
aI0
aI0
aI0
aI0
aI1
aI1
aI3
aI0
aI-1
aI0
aF0.8
aI1
aI0
aI1
aI1
aI0
aI0
aI0
aI0
aI0
aI0
aI0
aI0
aI0
aVcutlass_sweep
p172
aI13
aI0
aI1
aI1
aI1
asI2288
(lp173
I13706
aI1
aNaNaI4
aI0
aI0
aI-50
aI-60
aI0
aI0
aI0
aI100
aF0.25
aI15
aI10
aI0
aI0
aI0
aI0
aI1
aI0
aI1
aI0
aI0
aI5
aI0
aI0
aI1
aI0
aI1
aI1
aI15
aI2
aI-1
aI0
aF0.8
aI1
aI0
aI1
aI1
aI0
aI0
aI0
aI0
aI0
aI0
aI0
aI0
aI0
aVdagger_gouge
p174
aI8
aI0
aI1
aI1
aI0
asI2289
(lp175
I13706
aI2
aNaNaI8
aI0
aI0
aI-35
aI-40
aI0
aI0
aI0
aI80
aF0.25
aI20
aI50
aI0
aI0
aI0
aI0
aI1
aI0
aI0
aI0
aI0
aI21
aI0
aI0
aI1
aI0
aI1
aI1
aI10
aI2
aI-1
aI0
aF0.8
aI1
aI0
aI5
aI1
aI0
aI0
aI0
aI0
aI0
aI0
aI0
aI0
aI0
aVdagger_impale
p176
aI8
aI0
aI1
aI1
aI0
asI2290
(lp177
I13703
aI1
aNaNaI1
aI0
aI0
aI0
aI0
aI0
aI0
aI0
aI100
aF0.25
aI5
aI6
aI0
aI0
aI0
aI0
aI1
aI0
aI0
aI0
aI0
aI0
aI0
aI0
aI0
aI0
aI0
aI0
aI0
aI0
aI-1
aI0
aF0.45
aI6
aI0
aI1
aI1
aI0
aI0
aI0
aI0
aI0
aI0
aI0
aI0
aI0
aVcutlass_finesse
p178
aI1
aI1
aI1
aI1
aI0
asI2291
(lp179
I13703
aI1
aNaNaI1
aI0
aI0
aI0
aI0
aI0
aI0
aI0
aI90
aF0.25
aI15
aI6
aI15
aI0
aI0
aI0
aI1
aI1
aI1
aI0
aI0
aI0
aI0
aI0
aI0
aI0
aI0
aI0
aI0
aI0
aI-1
aI0
aF0.29
aI4
aI0
aI1
aI1
aI0
aI0
aI0
aI0
aI0
aI0
aI0
aI0
aI0
aVcutlass_finesse
p180
aI29
aI1
aI2
aI1
aI0
asI2292
(lp181
I13703
aI1
aNaNaI1
aI0
aI0
aI0
aI0
aI0
aI0
aI0
aI100
aF0.25
aI12
aI6
aI0
aI0
aI0
aI0
aI1
aI0
aI0
aI0
aI0
aI0
aI0
aI0
aI0
aI0
aI0
aI0
aI0
aI0
aI-1
aI0
aF0.62
aI5
aI0
aI1
aI1
aI0
aI0
aI0
aI0
aI0
aI0
aI0
aI0
aI0
aVcutlass_finesse
p182
aI1
aI1
aF1.25
aI1
aI0
asI2293
(lp183
I13703
aI1
aNaNaI1
aI0
aI0
aI0
aI0
aI0
aI0
aI0
aI90
aF0.25
aI2
aI6
aI0
aI0
aI0
aI0
aI1
aI0
aI0
aI0
aI0
aI4
aI0
aI0
aI0
aI0
aI0
aI1
aI10
aI2
aI-1
aI0
aF0.5
aI2
aI0
aI1
aI1
aI0
aI0
aI0
aI0
aI0
aI0
aI0
aI0
aI0
aVcutlass_finesse
p184
aI1
aI1
aI1
aI1
aI0
asI2294
(lp185
I13703
aI1
aNaNaI1
aI0
aI0
aI0
aI0
aI0
aI0
aI0
aI100
aF0.25
aI5
aI6
aI0
aI0
aI0
aI0
aI1
aI0
aI0
aI0
aI0
aI0
aI0
aI0
aI0
aI0
aI0
aI0
aI0
aI0
aI-1
aI0
aF0.4
aI2
aI0
aI1
aI1
aI0
aI0
aI0
aI0
aI0
aI0
aI0
aI0
aI0
aVcutlass_finesse
p186
aI1
aI1
aI1
aI1
aI0
asI2300
(lp187
I13709
aI3
aNaNaI6
aI0
aI0
aI-60
aI300
aI0
aI0
aI0
aI100
aF0.25
aI45
aI130
aI0
aI0
aI0
aI1
aI1
aI0
aI0
aI0
aI0
aI166
aI0
aI0
aI1
aI1
aI0
aI0
aI0
aI0
aI-1
aI0
aF0.1
aI1
aI2
aI2
aI1
aI0
aI0
aI0
aI0
aI0
aI0
aI0
aI0
aI1
aVvoodoo_will_power
p188
aI22
aI5
aI1
aF2.625
aI0
asI2301
(lp189
I13709
aI3
aNaNaI6
aI0
aI0
aI-50
aI0
aI0
aI0
aI0
aI100
aF0.25
aI60
aI130
aI0
aI0
aI0
aI1
aI1
aI0
aI0
aI0
aI0
aI35
aI0
aI0
aI1
aI1
aI0
aI0
aI15
aI0
aI-1
aI0
aF0.1
aI1
aI2
aI2
aI1
aI0
aI0
aI0
aI0
aI0
aI0
aI0
aI0
aI1
aVvoodoo_hasten
p190
aI47
aI5
aI1
aF2.625
aI0
asI2302
(lp191
I13709
aI3
aNaNaI6
aI0
aI0
aI-50
aI0
aI0
aI0
aI0
aI100
aF0.25
aI45
aI130
aI0
aI0
aI0
aI1
aI1
aI0
aI0
aI0
aI0
aI34
aI0
aI0
aI1
aI1
aI0
aI0
aI10
aI0
aI-1
aI0
aF0.1
aI1
aI2
aI2
aI1
aI0
aI0
aI0
aI0
aI0
aI0
aI0
aI0
aI1
aVcutlass_bladestorm
p192
aI49
aI5
aI1
aF2.625
aI0
asI2303
(lp193
I13709
aI3
aNaNaI6
aI0
aI0
aI-50
aI0
aI0
aI0
aI0
aI100
aF0.25
aI60
aI130
aI0
aI0
aI0
aI1
aI1
aI0
aI0
aI0
aI0
aI37
aI0
aI0
aI1
aI1
aI0
aI0
aI15
aI0
aI-1
aI0
aF0.1
aI1
aI2
aI2
aI1
aI0
aI0
aI0
aI0
aI0
aI0
aI0
aI0
aI1
aVgrenade_determination
p194
aI46
aI5
aI1
aF2.625
aI0
asI2304
(lp195
I13709
aI3
aNaNaI6
aI0
aI0
aI-50
aI0
aI0
aI0
aI0
aI100
aF0.25
aI60
aI130
aI0
aI0
aI0
aI1
aI1
aI0
aI0
aI0
aI0
aI36
aI0
aI0
aI1
aI1
aI0
aI0
aI15
aI0
aI-1
aI0
aF0.1
aI1
aI2
aI2
aI1
aI0
aI0
aI0
aI0
aI0
aI0
aI0
aI0
aI1
aVstaff_spirit_lore
p196
aI48
aI5
aI1
aF2.625
aI0
asI2305
(lp197
I13709
aI3
aNaNaI6
aI0
aI0
aI-40
aI0
aI0
aI0
aI0
aI100
aF0.25
aI45
aI130
aI0
aI0
aI0
aI1
aI1
aI0
aI0
aI0
aI0
aI20
aI0
aI0
aI1
aI1
aI0
aI0
aI20
aI2
aI-1
aI0
aF0.1
aI1
aI2
aI2
aI1
aI0
aI0
aI0
aI0
aI0
aI0
aI0
aI0
aI1
aVstaff_harmony
p198
aI25
aI5
aI1
aF2.625
aI0
asI2306
(lp199
I13709
aI3
aNaNaI0
aI0
aI0
aI-35
aI0
aI0
aI0
aI0
aI100
aI1
aI10
aI30
aI30
aI0
aI0
aI1
aI1
aI0
aI2
aI0
aI0
aI18
aI0
aI0
aI0
aI0
aI0
aI0
aI-1
aI0
aI-1
aI0
aF0.1
aI1
aI0
aI2
aI1
aI0
aI0
aI0
aI0
aI0
aI0
aI0
aI1
aI1
aVgrenade_determination2
p200
aI19
aI2
aI1
aF0.78
aI0
asI2310
(lp201
I13704
aI1
aNaNaI1
aI0
aI0
aI0
aI-40
aI0
aI0
aI0
aI90
aI0
aF0.5
aI10
aI0
aI0
aI0
aI0
aI1
aI0
aI0
aI0
aI0
aI26
aI0
aI0
aI1
aI0
aI0
aI1
aI3
aI0
aI-1
aI0
aF0.1
aI1
aI2
aI1
aI1
aI0
aI0
aI0
aI0
aI0
aI0
aI0
aI0
aI0
aVcutlass_cleave
p202
aI2
aI1
aI1
aI1
aI0
asI2311
(lp203
I13704
aI1
aNaNaI2
aI0
aI0
aI0
aI-15
aI0
aI0
aI0
aI90
aI0
aI15
aI6
aI0
aI0
aI0
aI0
aI1
aI0
aI0
aI0
aI0
aI26
aI0
aI0
aI1
aI0
aI0
aI1
aI6
aI0
aI-1
aI0
aF0.1
aI1
aI2
aI2
aI1
aI0
aI0
aI0
aI0
aI0
aI0
aI0
aI0
aI0
aVcutlass_brawl
p204
aI6
aI1
aF0.75
aI0
aI0
asI2312
(lp205
I13704
aI1
aNaNaI2
aI0
aI0
aI0
aI-60
aI0
aI0
aI0
aI70
aI0
aI10
aI10
aI0
aI0
aI0
aI0
aI1
aI0
aI0
aI0
aI0
aI26
aI0
aI0
aI1
aI0
aI0
aI1
aI3
aI0
aI-1
aI0
aF0.1
aI4
aI2
aI2
aI1
aI0
aI0
aI0
aI0
aI0
aI0
aI0
aI0
aI0
aVdagger_vipers_nest
p206
aI2
aI1
aF1.5
aI0
aI0
asI2313
(lp207
I13704
aI2
aNaNaI1
aI0
aI0
aI0
aI-35
aI0
aI0
aI0
aI80
aI0
aI3
aI150
aI0
aI0
aI0
aI0
aI1
aI0
aI0
aI0
aI0
aI0
aI0
aI0
aI1
aI0
aI1
aI0
aI0
aI0
aI-1
aI0
aF0.1
aI1
aI2
aI1
aI1
aI0
aI0
aI0
aI0
aI0
aI0
aI0
aI0
aI0
aVpistol_shoot
p208
aI0
aI0
aF0.6
aI1
aI0
asI2314
(lp209
I13704
aI1
aNaNaI2
aI0
aI0
aI0
aI-15
aI0
aI0
aI0
aI90
aI0
aI6
aI6
aI0
aI0
aI0
aI0
aI1
aI0
aI0
aI0
aI0
aI7
aI0
aI0
aI1
aI0
aI0
aI1
aI8
aI0
aI-1
aI0
aF0.1
aI1
aI2
aI5
aI1
aI0
aI0
aI0
aI0
aI0
aI0
aI0
aI0
aI0
aVcutlass_brawl
p210
aI6
aI1
aF0.75
aI0
aI0
asI2315
(lp211
I13704
aI1
aNaNaI2
aI0
aI0
aI0
aI-60
aI0
aI0
aI0
aI70
aI0
aI6
aI10
aI0
aI0
aI0
aI0
aI1
aI0
aI0
aI0
aI0
aI26
aI0
aI0
aI1
aI0
aI0
aI1
aI3
aI0
aI-1
aI0
aF0.1
aI4
aI2
aI5
aI1
aI0
aI0
aI0
aI0
aI0
aI0
aI0
aI0
aI0
aVdagger_vipers_nest
p212
aI2
aI1
aF1.5
aI0
aI0
asI2316
(lp213
I13704
aI1
aNaNaI2
aI0
aI0
aI0
aI-25
aI0
aI0
aI0
aI90
aI0
aI6
aI6
aI0
aI0
aI0
aI0
aI1
aI0
aI0
aI1
aI1
aI156
aI0
aI0
aI1
aI0
aI0
aI1
aI6
aI0
aI-1
aI0
aF0.1
aI1
aI2
aI5
aI1
aI0
aI0
aI0
aI0
aI0
aI0
aI0
aI0
aI0
aVgrenade_toughness
p214
aI42
aI1
aF0.75
aI0
aI0
asI2317
(lp215
I13704
aI1
aNaNaI1
aI0
aI0
aI0
aI-40
aI0
aI0
aI0
aI90
aI0
aF0.5
aI10
aI0
aI0
aI0
aI0
aI1
aI0
aI0
aI0
aI0
aI26
aI0
aI0
aI1
aI0
aI0
aI1
aI3
aI0
aI-1
aI0
aF0.33
aI1
aI2
aI1
aI1
aI0
aI0
aI0
aI0
aI0
aI0
aI0
aI0
aI0
aVcutlass_cleave
p216
aI2
aI1
aF0.5
aI1
aI0
asI2320
(lp217
I13703
aI1
aNaNaI1
aI0
aI0
aI0
aI-60
aI0
aI0
aI0
aI80
aF0.25
aI4
aI6
aI0
aI0
aI0
aI0
aI1
aI0
aI0
aI0
aI0
aI26
aI0
aI0
aI1
aI0
aI0
aI1
aI6
aI0
aI-1
aI0
aF0.22
aI1
aI2
aI1
aI1
aI0
aI0
aI0
aI0
aI0
aI0
aI0
aI0
aI0
aVcutlass_cleave
p218
aI1
aI1
aI1
aI1
aI0
asI31000
(lp219
I13716
aI1
aNaNaI3
aI0
aI0
aI0
aI-1
aI0
aI0
aI0
aI100
aF0.25
aI15
aI6
aI0
aI0
aI0
aI0
aI1
aI0
aI0
aI0
aI0
aI26
aI0
aI0
aI1
aI0
aI0
aI1
aI3
aI0
aI-1
aI0
aF0.22
aI1
aI0
aI1
aI1
aI0
aI0
aI0
aI0
aI0
aI0
aI0
aI1
aI1
aVpir_t_gui_fsh_stall
p220
aI1
aI1
aF0.75
aF0.625
aI0
asI31001
(lp221
I13716
aI1
aNaNaI4
aI0
aI0
aI0
aI-1
aI0
aI0
aI0
aI100
aF0.25
aI15
aI6
aI0
aI0
aI0
aI0
aI1
aI0
aI0
aI0
aI0
aI26
aI0
aI0
aI1
aI0
aI0
aI1
aI3
aI0
aI-1
aI0
aF0.46
aI1
aI0
aI1
aI1
aI0
aI0
aI0
aI0
aI0
aI0
aI0
aI1
aI1
aVpir_t_gui_fsh_pull
p222
aI2
aI1
aI1
aF0.75
aI0
asI31002
(lp223
I13716
aI1
aNaNaI6
aI0
aI0
aI0
aI-1
aI0
aI0
aI0
aI100
aF0.25
aI30
aI6
aI0
aI0
aI0
aI0
aI1
aI0
aI0
aI0
aI0
aI26
aI0
aI0
aI1
aI0
aI0
aI1
aI3
aI0
aI-1
aI0
aF0.7
aI1
aI0
aI1
aI1
aI0
aI0
aI0
aI0
aI0
aI0
aI0
aI1
aI1
aVpir_t_gui_fsh_heal
p224
aI5
aI1
aF1.25
aF1.125
aI0
asI31003
(lp225
I13716
aI1
aNaNaI13
aI0
aI0
aI0
aI-1
aI0
aI0
aI0
aI100
aF0.25
aI30
aI6
aI0
aI0
aI0
aI0
aI1
aI0
aI0
aI0
aI0
aI26
aI0
aI0
aI1
aI0
aI0
aI1
aI3
aI0
aI-1
aI0
aF0.6
aI3
aI0
aI1
aI1
aI0
aI0
aI0
aI0
aI0
aI0
aI0
aI0
aI0
aVpir_t_gui_fsh_tug
p226
aI4
aI1
aF1.5
aF1.58
aI0
asI31004
(lp227
I13716
aI1
aNaNaI16
aI0
aI0
aI0
aI-1
aI0
aI0
aI0
aI100
aF0.25
aI10
aI6
aI0
aI0
aI0
aI0
aI1
aI0
aI0
aI0
aI0
aI26
aI0
aI0
aI1
aI0
aI0
aI1
aI3
aI0
aI-1
aI0
aF0.6
aI3
aI0
aI1
aI1
aI0
aI0
aI0
aI0
aI0
aI0
aI0
aI0
aI0
aVpir_t_gui_fsh_sink
p228
aI4
aI1
aF1.5
aF1.58
aI0
asI31005
(lp229
I13716
aI1
aNaNaI17
aI0
aI0
aI0
aI-1
aI0
aI0
aI0
aI100
aF0.25
aI20
aI6
aI0
aI0
aI0
aI0
aI1
aI0
aI0
aI0
aI0
aI26
aI0
aI0
aI1
aI0
aI0
aI1
aI3
aI0
aI-1
aI0
aF0.6
aI3
aI0
aI1
aI1
aI0
aI0
aI0
aI0
aI0
aI0
aI0
aI0
aI0
aVpir_t_gui_fsh_oceanEye
p230
aI4
aI1
aF1.5
aF1.58
aI0
asI2334
(lp231
I13703
aI1
aNaNaI1
aI0
aI0
aI-60
aI-50
aI0
aI0
aI0
aI100
aF0.25
aI30
aI6
aI0
aI0
aI0
aI0
aI1
aI0
aI0
aI0
aI0
aI164
aI0
aI0
aI1
aI0
aI0
aI1
aI3
aI0
aI-1
aI0
aF0.22
aI1
aI0
aI1
aI0
aI0
aI0
aI0
aI0
aI0
aI0
aI0
aI1
aI1
aVpir_t_gui_amo_can_iceshot
p232
aI31
aI1
aF0.75
aF0.625
aI0
asI2335
(lp233
I13703
aI1
aNaNaI1
aI0
aI0
aI-80
aI-100
aI0
aI0
aI0
aI100
aF0.25
aI15
aI6
aI0
aI0
aI0
aI0
aI1
aI0
aI0
aI0
aI0
aI26
aI0
aI0
aI1
aI0
aI0
aI1
aI3
aI0
aI-1
aI0
aF0.22
aI1
aI0
aI1
aI0
aI0
aI0
aI0
aI0
aI0
aI0
aI0
aI1
aI1
aVcannon_thunderbolt
p234
aI44
aI1
aF0.75
aF0.625
aI0
asI2336
(lp235
I13703
aI1
aNaNaI2
aI0
aI0
aI0
aI-80
aI0
aI0
aI0
aI100
aF0.25
aI30
aI6
aI15
aI0
aI0
aI0
aI1
aI0
aI1
aI1
aI1
aI156
aI0
aI0
aI1
aI0
aI0
aI0
aI6
aI0
aI-1
aI0
aF0.6
aI1
aI0
aI5
aI0
aI0
aI0
aI0
aI0
aI0
aI0
aI0
aI1
aI1
aVcannon_shrapnel
p236
aI42
aI1
aF1.25
aF1.42
aI0
asI2337
(lp237
I13703
aI1
aNaNaI2
aI0
aI0
aI0
aI-100
aI0
aI0
aI0
aI100
aF0.25
aI30
aI6
aI15
aI0
aI0
aI0
aI1
aI0
aI1
aI0
aI0
aI0
aI0
aI0
aI1
aI0
aI0
aI0
aI0
aI0
aI-1
aI0
aF0.6
aI4
aI0
aI5
aI0
aI0
aI0
aI0
aI0
aI0
aI0
aI0
aI1
aI1
aVgrenade_determination
p238
aI29
aI1
aF1.25
aF1.42
aI0
asI2340
(lp239
I13704
aI2
aNaI12200
aI1
aI0
aI0
aI0
aI-30
aI0
aI0
aI0
aI70
aF0.25
aF0.5
aI70
aI70
aI0
aI0
aI0
aI1
aI0
aI2
aI0
aI0
aI0
aI0
aI0
aI1
aI0
aI0
aI0
aI0
aI0
aI-1
aI0
aF0.1
aI1
aI2
aI1
aI1
aI0
aI0
aI0
aI0
aI0
aI0
aI0
aI1
aI1
aVsail_task_master
p240
aI0
aI0
aI1
aF0.55
aI0
asI2341
(lp241
I13704
aI2
aNaI12200
aI2
aI0
aI0
aI0
aI-50
aI0
aI0
aI0
aI100
aF0.25
aI15
aI100
aI0
aI0
aI0
aI0
aI1
aI0
aI0
aI0
aI0
aI7
aI0
aI0
aI1
aI0
aI1
aI1
aI5
aI0
aI-1
aI0
aF0.1
aI1
aI2
aI1
aI1
aI0
aI0
aI0
aI0
aI0
aI0
aI0
aI1
aI1
aVpistol_eagle_eye
p242
aI6
aI0
aI1
aF0.55
aI0
asI2342
(lp243
I13704
aI2
aNaNaI2
aI0
aI0
aI0
aI-25
aI0
aI0
aI0
aI90
aF0.25
aI15
aI70
aI0
aI0
aI0
aI0
aI1
aI0
aI0
aI0
aI0
aI0
aI0
aI0
aI1
aI0
aI1
aI0
aI0
aI0
aI-1
aI0
aF0.1
aI3
aI2
aI1
aI1
aI0
aI0
aI0
aI0
aI0
aI0
aI0
aI1
aI1
aVcannon_barrage
p244
aI0
aI0
aI1
aF0.55
aI0
asI2343
(lp245
I13704
aI0
aNaNaI0
aI0
aI0
aI0
aI0
aI0
aI0
aI0
aI100
aI0
aI60
aI0
aI0
aI0
aI1
aI0
aI1
aI0
aI0
aI0
aI0
aI157
aI0
aI0
aI0
aI0
aI0
aI0
aI10
aI0
aI-1
aI0
aF0.1
aI1
aI0
aI1
aI1
aI0
aI0
aI0
aI0
aI0
aI0
aI0
aI1
aI1
aVsail_open_fire
p246
aI45
aI0
aI1
aF1.16
aI0
asI2344
(lp247
I13704
aI2
aNaNaI1
aI0
aI0
aI0
aI-30
aI0
aI0
aI0
aI70
aF0.25
aI10
aI40
aI70
aI0
aI0
aI0
aI1
aI0
aI2
aI1
aI0
aI6
aI0
aI0
aI1
aI0
aI0
aI1
aI5
aI0
aI-1
aI0
aF0.1
aI2
aI2
aI5
aI1
aI0
aI0
aI0
aI0
aI0
aI0
aI0
aI1
aI1
aVpir_t_gui_amo_can_scatter
p248
aI42
aI0
aI1
aF0.55
aI0
asI2345
(lp249
I13704
aI2
aNaNaI1
aI0
aI0
aI0
aI-30
aI0
aI0
aI0
aI70
aF0.25
aI10
aI40
aI70
aI0
aI0
aI0
aI1
aI0
aI2
aI0
aI0
aI4
aI0
aI0
aI1
aI0
aI0
aI1
aI3
aI0
aI-1
aI0
aF0.1
aI3
aI2
aI5
aI1
aI0
aI0
aI0
aI0
aI0
aI0
aI0
aI1
aI1
aVcannon_grape_shot
p250
aI10
aI0
aI1
aF0.55
aI0
asI2346
(lp251
I13704
aI2
aNaNaI2
aI0
aI0
aI0
aI-200
aI0
aI0
aI0
aI80
aF0.25
aI10
aI20
aI0
aI0
aI0
aI0
aI1
aI0
aI0
aI0
aI0
aI0
aI0
aI0
aI1
aI0
aI1
aI0
aI0
aI0
aI-1
aI0
aF0.1
aI1
aI0
aI5
aI1
aI0
aI0
aI0
aI0
aI0
aI0
aI0
aI1
aI1
aVpistol_shoot
p252
aI6
aI0
aI1
aF0.55
aI0
asI2347
(lp253
I13704
aI2
aNaNaI2
aI0
aI0
aI0
aI-50
aI0
aI0
aI0
aI100
aF0.25
aI15
aI100
aI0
aI0
aI0
aI0
aI1
aI0
aI0
aI0
aI0
aI3
aI0
aI0
aI1
aI0
aI1
aI1
aI10
aI0
aI-1
aI0
aF0.1
aI1
aI2
aI1
aI1
aI0
aI0
aI0
aI0
aI0
aI0
aI0
aI1
aI1
aVpir_t_gui_amo_can_firestorm
p254
aI9
aI0
aI1
aF0.55
aI0
asI2348
(lp255
I13704
aI2
aNaI12210
aI5
aI0
aI0
aI0
aI-30
aI0
aI0
aI0
aI70
aF0.25
aI1
aI70
aI70
aI0
aI0
aI0
aI1
aI0
aI2
aI0
aI0
aI7
aI0
aI0
aI1
aI0
aI1
aI1
aI3
aI0
aI-1
aI2
aF0.1
aI1
aI2
aI1
aI1
aI0
aI0
aI0
aI0
aI0
aI0
aI0
aI1
aI1
aVpistol_take_aim
p256
aI0
aI0
aI1
aF0.55
aI0
asI2350
(lp257
I13703
aI1
aNaI12100
aI1
aI0
aI0
aI0
aI-12
aI0
aI0
aI0
aI100
aF0.25
aF0.5
aI6
aI0
aI0
aI0
aI0
aI1
aI0
aI0
aI0
aI0
aI26
aI0
aI0
aI1
aI0
aI0
aI1
aI3
aI0
aI-1
aI0
aF0.22
aI1
aI0
aI1
aI1
aI0
aI0
aI0
aI0
aI0
aI0
aI0
aI1
aI1
aVcutlass_hack
p258
aI50
aI1
aF0.5
aF0.375
aI0
asI2351
(lp259
I13703
aI1
aNaI12101
aI2
aI0
aI0
aI0
aI-33
aI0
aI0
aI0
aI100
aF0.25
aF0.5
aI6
aI10
aI0
aI0
aI0
aI1
aI0
aI1
aI0
aI0
aI26
aI0
aI0
aI1
aI0
aI0
aI1
aI3
aI0
aI-1
aI0
aF0.46
aI1
aI0
aI1
aI1
aI0
aI0
aI0
aI0
aI0
aI0
aI0
aI1
aI1
aVcutlass_slash
p260
aI51
aI1
aF1.025
aF0.775
aI0
asI2352
(lp261
I13703
aI1
aNaI12102
aI2
aI0
aI0
aI0
aI-45
aI0
aI0
aI0
aI100
aF0.25
aF0.5
aI6
aI15
aI0
aI0
aI0
aI1
aI0
aI1
aI0
aI0
aI26
aI0
aI0
aI1
aI0
aI0
aI1
aI3
aI0
aI-1
aI0
aF0.7
aI1
aI0
aI1
aI1
aI0
aI0
aI0
aI0
aI0
aI0
aI0
aI1
aI1
aVcutlass_cleave
p262
aI52
aI1
aF0.875
aF0.75
aI0
asI2353
(lp263
I13703
aI1
aNaI12103
aI4
aI0
aI0
aI0
aI-80
aI0
aI0
aI0
aI100
aF0.25
aF0.5
aI6
aI15
aI0
aI0
aI0
aI1
aI0
aI1
aI0
aI0
aI26
aI0
aI0
aI1
aI0
aI0
aI1
aI3
aI0
aI-1
aI0
aF0.6
aI1
aI0
aI1
aI1
aI0
aI0
aI0
aI0
aI0
aI0
aI0
aI0
aI0
aVcutlass_flourish
p264
aI53
aI1
aF0.6
aF0.6
aI0
asI2354
(lp265
I13703
aI1
aNaI12104
aI6
aI0
aI0
aI0
aI-110
aI0
aI0
aI0
aI100
aF0.25
aF0.5
aI6
aI0
aI0
aI0
aI0
aI1
aI0
aI0
aI0
aI0
aI26
aI0
aI0
aI1
aI0
aI0
aI1
aI3
aI0
aI-1
aI0
aF0.6
aI1
aI0
aI1
aI1
aI0
aI0
aI0
aI0
aI0
aI0
aI0
aI0
aI0
aVcutlass_stab
p266
aI54
aI1
aF1.4
aF0.95
aI0
asI12600
(lp267
I13709
aI3
aNaNaI0
aI0
aI0
aI0
aI0
aI0
aI0
aI0
aI100
aI1
aF0.5
aI6
aI0
aI0
aI0
aI1
aI1
aI0
aI0
aI0
aI0
aI18
aI0
aI0
aI1
aI0
aI0
aI0
aI-1
aI0
aI-1
aI0
aF0.1
aI1
aI0
aI1
aI1
aI0
aI0
aI0
aI0
aI0
aI0
aI0
aI1
aI1
aVvoodoo_attune
p268
aI19
aI2
aI1
aF0.78
aI0
asI12601
(lp269
I13709
aI3
aNaNaI4
aI0
aI0
aI-5
aI-65
aI0
aI0
aI0
aI100
aF0.25
aI4
aI130
aI0
aI0
aI0
aI0
aI1
aI0
aI0
aI0
aI0
aI0
aI0
aI0
aI1
aI0
aI0
aI0
aI0
aI0
aI-1
aI0
aF0.6
aI1
aI0
aI2
aI1
aI0
aI0
aI0
aI0
aI0
aI0
aI0
aI1
aI1
aVvoodoo_poke
p270
aI20
aI2
aF0.5
aF2.08
aI0
asI12602
(lp271
I13709
aI3
aNaNaI5
aI0
aI0
aI-20
aI-100
aI0
aI0
aI0
aI100
aF0.25
aI10
aI130
aI0
aI0
aI0
aI0
aI1
aI0
aI0
aI0
aI0
aI0
aI0
aI0
aI1
aI0
aI0
aI0
aI0
aI0
aI-1
aI0
aF0.4
aI1
aI0
aI2
aI1
aI0
aI0
aI0
aI0
aI0
aI0
aI0
aI1
aI1
aVvoodoo_swarm
p272
aI21
aI2
aI2
aF2.625
aI0
asI12603
(lp273
I13709
aI3
aNaNaI10
aI0
aI0
aI-15
aI180
aI0
aI0
aI0
aI100
aF0.25
aI10
aI130
aI0
aI0
aI0
aI1
aI1
aI0
aI0
aI0
aI0
aI0
aI0
aI0
aI1
aI0
aI0
aI0
aI0
aI0
aI-1
aI0
aF0.3
aI1
aI0
aI2
aI1
aI0
aI0
aI0
aI0
aI0
aI0
aI0
aI1
aI1
aVvoodoo_heal
p274
aI22
aI2
aI1
aF2.625
aI0
asI2364
(lp275
I13703
aI1
aNaI12104
aI6
aI0
aI0
aI0
aI-83
aI0
aI0
aI0
aI100
aF0.25
aF0.5
aI6
aI0
aI0
aI0
aI0
aI1
aI0
aI0
aI0
aI0
aI26
aI0
aI0
aI1
aI0
aI0
aI1
aI3
aI0
aI-1
aI0
aF0.6
aI1
aI0
aI1
aI1
aI0
aI0
aI0
aI0
aI0
aI0
aI0
aI0
aI0
aVcutlass_stab
p276
aI59
aI1
aF1.4
aF0.7
aI0
asI12605
(lp277
I13709
aI3
aNaNaF7.5
aI0
aI0
aI-35
aI-25
aI0
aI0
aI0
aI100
aF0.25
aI25
aI130
aI0
aI0
aI0
aI0
aI1
aI0
aI0
aI0
aI0
aI3
aI0
aI0
aI1
aI0
aI0
aI1
aI15
aI2
aI-1
aI0
aF0.3
aI1
aI0
aI2
aI1
aI0
aI0
aI0
aI0
aI0
aI0
aI0
aI0
aI1
aVvoodoo_burn
p278
aI9
aI2
aI1
aF2.625
aI0
asI12606
(lp279
I13709
aI3
aNaNaI20
aI0
aI0
aI-40
aI360
aI0
aI0
aI0
aI100
aF0.25
aI30
aI130
aI0
aI0
aI0
aI1
aI1
aI0
aI0
aI0
aI0
aI15
aI0
aI0
aI1
aI0
aI0
aI0
aI0
aI0
aI-1
aI0
aF0.3
aI1
aI0
aI2
aI1
aI0
aI0
aI0
aI0
aI0
aI0
aI0
aI0
aI0
aVvoodoo_cure
p280
aI25
aI2
aI1
aF2.625
aI0
asI12607
(lp281
I13709
aI3
aNaNaI20
aI0
aI0
aI-50
aI0
aI0
aI0
aI0
aI100
aF0.25
aI60
aI130
aI0
aI0
aI0
aI0
aI1
aI0
aI0
aI0
aI0
aI8
aI0
aI0
aI1
aI0
aI0
aI1
aI5
aI0
aI-1
aI0
aF0.1
aI1
aI0
aI2
aI1
aI0
aI0
aI0
aI0
aI0
aI0
aI0
aI0
aI0
aVvoodoo_shackle
p282
aI24
aI2
aI1
aF2.625
aI0
asI12608
(lp283
I13709
aI3
aNaNaI20
aI0
aI0
aI-100
aI-200
aI0
aI0
aI0
aI100
aF0.25
aI30
aI130
aI0
aI0
aI0
aI0
aI1
aI0
aI0
aI0
aI0
aI23
aI0
aI0
aI1
aI0
aI0
aI0
aI0
aI0
aI-1
aI0
aF0.1
aI1
aI0
aI2
aI1
aI0
aI0
aI0
aI0
aI0
aI0
aI0
aI0
aI0
aVvoodoo_life_drain
p284
aI27
aI2
aI2
aF2.625
aI0
asI12609
(lp285
I13709
aI0
aNaNaI0
aI0
aI0
aI0
aI0
aI0
aI0
aI0
aI0
aF0.04
aI0
aI0
aI0
aI0
aI0
aI0
aI1
aI0
aI0
aI0
aI0
aI0
aI0
aI0
aI0
aI1
aI0
aI0
aI0
aI0
aI-1
aI0
aF0.1
aI0
aI0
aI3
aI0
aI0
aI0
aI0
aI0
aI0
aI0
aI0
aI0
aI0
aVstaff_focus
p286
aI0
aI0
aI1
aI0
aI0
asI12610
(lp287
I13709
aI0
aNaNaI0
aI0
aI0
aI0
aI0
aI0
aI0
aI0
aI0
aF0.02
aI0
aI0
aI0
aI0
aI0
aI0
aI0
aI0
aI0
aI0
aI0
aI0
aI0
aI0
aI0
aI1
aI0
aI0
aI0
aI0
aI-1
aI0
aI0
aI0
aI0
aI3
aI0
aI0
aI0
aI0
aI0
aI0
aI0
aI0
aI0
aI0
aVvoodoo_will_power
p288
aI0
aI0
aI1
aI0
aI0
asI2371
(lp289
I0
aI0
aNaNaI0
aI0
aI0
aI0
aI0
aI0
aI0
aI0
aI100
aF0.25
aF0.5
aI0
aI0
aI0
aI1
aI0
aI0
aI0
aI0
aI0
aI0
aI0
aI0
aI0
aI0
aI0
aI0
aI0
aI0
aI0
aI-1
aI0
aI0
aI1
aI1
aI1
aI1
aI0
aI0
aI0
aI0
aI0
aI0
aI0
aI0
aI0
aVvoodoo_heal
p290
aI45
aI2
aI1
aF2.625
aI0
asI2372
(lp291
I0
aI0
aNaNaI0
aI0
aI0
aI0
aI0
aI0
aI0
aI0
aI100
aF0.25
aF0.5
aI0
aI0
aI0
aI1
aI0
aI0
aI0
aI0
aI0
aI0
aI0
aI0
aI0
aI0
aI0
aI0
aI0
aI0
aI0
aI-1
aI0
aI0
aI1
aI1
aI1
aI1
aI0
aI0
aI0
aI0
aI0
aI0
aI0
aI0
aI0
aVvoodoo_cure
p292
aI45
aI2
aI1
aF2.625
aI0
asI2373
(lp293
I0
aI0
aNaNaI0
aI0
aI0
aI0
aI0
aI0
aI0
aI0
aI100
aF0.25
aF0.5
aI0
aI0
aI0
aI1
aI0
aI0
aI0
aI0
aI0
aI0
aI0
aI0
aI0
aI0
aI0
aI0
aI0
aI0
aI0
aI-1
aI0
aI0
aI1
aI1
aI1
aI1
aI0
aI0
aI0
aI0
aI0
aI0
aI0
aI0
aI0
aVvoodoo_curse
p294
aI45
aI2
aI1
aF2.625
aI0
asI12650
(lp295
I13712
aI0
aNaNaI0
aI0
aI0
aI0
aI0
aI0
aI0
aI0
aI100
aF0.05
aI15
aI-1
aI0
aI0
aI0
aI0
aI0
aI0
aI0
aI0
aI0
aI0
aI0
aI0
aI0
aI0
aI0
aI0
aI0
aI0
aI-1
aI0
aI0
aI1
aI0
aI2
aI1
aI0
aI0
aI0
aI0
aI0
aI0
aI0
aI1
aI1
aVsail_broadside_left
p296
aI0
aI1
aI1
aI0
aI0
asI12651
(lp297
I13712
aI0
aNaNaI0
aI0
aI0
aI0
aI0
aI0
aI0
aI0
aI100
aF0.05
aI15
aI-1
aI0
aI0
aI0
aI0
aI0
aI0
aI0
aI0
aI0
aI0
aI0
aI0
aI0
aI0
aI0
aI0
aI0
aI0
aI-1
aI0
aI0
aI1
aI0
aI2
aI1
aI0
aI0
aI0
aI0
aI0
aI0
aI0
aI1
aI1
aVsail_broadside_right
p298
aI0
aI1
aI1
aI0
aI0
asI12652
(lp299
I13712
aI0
aNaNaI2
aI0
aI0
aI0
aI0
aI0
aI0
aI0
aI100
aF0.25
aI90
aI-1
aI0
aI0
aI0
aI0
aI0
aI0
aI0
aI0
aI0
aI100
aI0
aI0
aI0
aI0
aI0
aI0
aI10
aI0
aI-1
aI0
aI0
aI1
aI0
aI2
aI1
aI4
aI4
aI0
aI0
aI0
aI0
aI0
aI1
aI1
aVsail_full_sail
p300
aI0
aI1
aI1
aI0
aI0
asI12653
(lp301
I13712
aI0
aNaNaI2
aI0
aI0
aI0
aI0
aI0
aI0
aI0
aI100
aF0.25
aI90
aI-1
aI0
aI0
aI0
aI0
aI0
aI0
aI0
aI0
aI0
aI101
aI0
aI0
aI0
aI0
aI0
aI0
aI5
aI0
aI-1
aI0
aI0
aI1
aI0
aI2
aI1
aF0.25
aF0.25
aI0
aI0
aI4
aI4
aI0
aI1
aI1
aVsail_come_about
p302
aI0
aI1
aI1
aI0
aI0
asI12654
(lp303
I13712
aI0
aNaNaI4
aI0
aI0
aI0
aI0
aI0
aI0
aI0
aI100
aF0.25
aI60
aI-1
aI150
aI1
aI0
aI1
aI0
aI0
aI1
aI0
aI0
aI102
aI0
aI0
aI0
aI0
aI0
aI0
aI6
aI0
aI-1
aI0
aI0
aI1
aI0
aI2
aI1
aI0
aI0
aI0
aI0
aI0
aI0
aI1
aI0
aI0
aVsail_openfire2
p304
aI0
aI1
aI1
aI0
aI0
asI12655
(lp305
I13712
aI0
aNaNaI20
aI0
aI0
aI0
aI0
aI0
aI0
aI0
aI100
aF0.25
aI90
aI-1
aI0
aI0
aI0
aI0
aI0
aI0
aI0
aI0
aI0
aI103
aI0
aI0
aI0
aI0
aI0
aI0
aI5
aI0
aI-1
aI0
aI0
aI1
aI0
aI2
aI1
aI6
aI6
aI0
aI0
aI0
aI0
aI0
aI0
aI0
aVsail_ramming_speed
p306
aI0
aI1
aI1
aI0
aI0
asI12656
(lp307
I13712
aI0
aNaNaI4
aI0
aI0
aI0
aI0
aI0
aI0
aI0
aI100
aF0.25
aI60
aI-1
aI150
aI1
aI0
aI1
aI0
aI0
aI1
aI0
aI0
aI104
aI0
aI0
aI0
aI0
aI0
aI0
aI10
aI0
aI-1
aI0
aI0
aI1
aI0
aI2
aI1
aI0
aI0
aI0
aI0
aI0
aI0
aI1
aI0
aI0
aVsail_take_cover
p308
aI0
aI1
aI1
aI0
aI0
asI12657
(lp309
I13712
aI0
aNaNaI0
aI0
aI0
aI0
aI0
aI0
aI0
aI0
aI0
aF0.04
aI0
aI0
aI0
aI0
aI0
aI0
aI0
aI0
aI0
aI0
aI0
aI0
aI0
aI0
aI0
aI0
aI0
aI0
aI0
aI0
aI-1
aI0
aI0
aI0
aI0
aI3
aI0
aF0.04
aF0.04
aF0.04
aF0.04
aI0
aI0
aI0
aI1
aI1
aVsail_wind_catcher
p310
aI0
aI1
aI1
aI0
aI0
asI12658
(lp311
I13712
aI0
aNaNaI0
aI0
aI0
aI0
aI0
aI0
aI0
aI0
aI0
aF0.03
aI0
aI0
aI0
aI0
aI0
aI0
aI0
aI0
aI0
aI0
aI0
aI0
aI0
aI0
aI0
aI0
aI0
aI0
aI0
aI0
aI-1
aI0
aI0
aI0
aI0
aI3
aI0
aI0
aI0
aI0
aI0
aF0.04
aF0.04
aI0
aI0
aI0
aVsail_tacking
p312
aI0
aI1
aI1
aI0
aI0
asI12659
(lp313
I13712
aI0
aNaNaI0
aI0
aI0
aI0
aI0
aI0
aI0
aI0
aI0
aI10
aI0
aI0
aI0
aI0
aI0
aI0
aI0
aI0
aI0
aI0
aI0
aI0
aI0
aI0
aI0
aI0
aI0
aI0
aI0
aI0
aI-1
aI0
aI0
aI0
aI0
aI3
aI0
aI0
aI0
aI0
aI0
aI0
aI0
aI0
aI0
aI0
aVsail_treasure_sense
p314
aI0
aI1
aI1
aI0
aI0
asI12660
(lp315
I13712
aI0
aNaNaI0
aI0
aI0
aI0
aI0
aI0
aI0
aI0
aI0
aF0.03
aI0
aI0
aI0
aI0
aI0
aI0
aI0
aI0
aI0
aI0
aI0
aI0
aI0
aI0
aI0
aI0
aI0
aI0
aI0
aI0
aI-1
aI0
aI0
aI0
aI0
aI3
aI0
aI0
aI0
aI0
aI0
aI0
aI0
aI0
aI0
aI0
aVsail_task_master
p316
aI0
aI1
aI1
aI0
aI0
asI12661
(lp317
I13712
aI0
aNaNaI4
aI0
aI0
aI0
aI0
aI0
aI0
aI0
aI100
aF0.25
aI120
aI-1
aI0
aI0
aI0
aI0
aI0
aI0
aI0
aI0
aI0
aI105
aI0
aI0
aI0
aI0
aI0
aI0
aI10
aI0
aI-1
aI0
aI0
aI1
aI0
aI2
aI1
aI1
aI0
aI0
aI0
aI0
aI0
aI0
aI0
aI0
aVsail_recharge
p318
aI0
aI1
aI1
aI0
aI0
asI12700
(lp319
I13708
aI3
aNaNaF0.5
aI0
aI0
aI0
aI-10
aI0
aI0
aI0
aI90
aF0.25
aF0.8
aI70
aI3
aI0
aI0
aI0
aI1
aI0
aI1
aI0
aI0
aI0
aI0
aI0
aI1
aI0
aI0
aI0
aI0
aI0
aI-1
aI0
aF0.7
aI1
aI0
aI1
aI1
aI0
aI0
aI0
aI0
aI0
aI0
aI0
aI1
aI1
aVstaff_blast
p320
aI31
aI0
aI1
aF1.33
aI0
asI12701
(lp321
I13708
aI3
aNaNaF2.5
aI0
aI0
aI-30
aI-50
aI0
aI0
aI0
aI100
aF0.25
aF0.5
aI50
aI0
aI0
aI0
aI0
aI1
aI0
aI3
aI0
aI0
aI7
aI0
aI0
aI0
aI0
aI0
aI1
aI5
aI0
aI-1
aI1
aF0.1
aI1
aI1
aI2
aI0
aI0
aI0
aI0
aI0
aI0
aI0
aI0
aI1
aI1
aVstaff_frostbeam
p322
aI36
aI2
aI1
aF1.33
aI0
asI12702
(lp323
I13708
aI3
aNaNaI5
aI0
aI0
aI-45
aI-80
aI0
aI0
aI0
aI100
aF0.25
aF2.5
aI50
aI0
aI0
aI0
aI0
aI1
aI0
aI2
aI0
aI0
aI21
aI0
aI0
aI0
aI0
aI0
aI1
aI20
aI2
aI-1
aI3
aF0.1
aI1
aI1
aI2
aI0
aI0
aI0
aI0
aI0
aI0
aI0
aI0
aI1
aI1
aVstaff_pestilence
p324
aI33
aI2
aI1
aF1.33
aI0
asI12703
(lp325
I13708
aI3
aNaNaI4
aI0
aI0
aI-60
aI-100
aI0
aI0
aI0
aI100
aF0.25
aF1.5
aI20
aI20
aI0
aI0
aI0
aI1
aI0
aI1
aI0
aI0
aI14
aI0
aI0
aI0
aI0
aI0
aI1
aI15
aI0
aI-1
aI2
aF0.1
aI1
aI1
aI2
aI0
aI0
aI0
aI0
aI0
aI0
aI0
aI0
aI1
aI1
aVstaff_sparks
p326
aI32
aI2
aI1
aF1.33
aI0
asI12704
(lp327
I13708
aI3
aNaNaF8.5
aI0
aI0
aI-120
aI-200
aI0
aI0
aI0
aI100
aF0.25
aF3.5
aI120
aI0
aI0
aI0
aI0
aI1
aI0
aI3
aI0
aI0
aI3
aI0
aI0
aI0
aI0
aI0
aI1
aI6
aI2
aI-1
aI4
aF0.1
aI1
aI1
aI2
aI0
aI0
aI0
aI0
aI0
aI0
aI0
aI0
aI0
aI0
aVstaff_fire
p328
aI37
aI2
aI1
aF1.33
aI0
asI12705
(lp329
I13708
aI3
aNaNaI18
aI0
aI0
aI-210
aI-300
aI0
aI0
aI0
aI100
aF0.25
aF7.5
aI50
aI0
aI0
aI0
aI0
aI1
aI0
aI0
aI0
aI0
aI16
aI0
aI0
aI1
aI0
aI1
aI1
aI0
aI0
aI-1
aI8
aF0.1
aI1
aI1
aI2
aI0
aI0
aI0
aI0
aI0
aI0
aI0
aI0
aI0
aI0
aVstaff_deluge
p330
aI34
aI2
aI1
aF1.33
aI0
asI12706
(lp331
I13708
aI3
aNaNaI15
aI0
aI0
aI-300
aI-350
aI0
aI0
aI0
aI100
aF0.25
aF11.5
aI20
aI40
aI0
aI0
aI0
aI1
aI0
aI1
aI0
aI0
aI22
aI0
aI0
aI0
aI0
aI0
aI1
aI0
aI0
aI-1
aI12
aF0.1
aI1
aI1
aI2
aI0
aI0
aI0
aI0
aI0
aI0
aI0
aI0
aI0
aI0
aVstaff_shockwave
p332
aI35
aI2
aI1
aF1.33
aI0
asI12707
(lp333
I13708
aI0
aNaNaI0
aI0
aI0
aI0
aI0
aI0
aI0
aI0
aI0
aF0.1
aI0
aI0
aI0
aI0
aI0
aI0
aI0
aI0
aI0
aI0
aI0
aI0
aI0
aI0
aI0
aI0
aI0
aI0
aI0
aI0
aI-1
aI0
aI0
aI0
aI0
aI3
aI0
aI0
aI0
aI0
aI0
aI0
aI0
aI0
aI1
aI1
aVstaff_concentration
p334
aI0
aI0
aI1
aI0
aI0
asI12708
(lp335
I13708
aI0
aNaNaI0
aI0
aI0
aI0
aI0
aI0
aI0
aI0
aI0
aF0.04
aI0
aI0
aI0
aI0
aI0
aI0
aI0
aI0
aI0
aI0
aI0
aI0
aI0
aI0
aI0
aI0
aI0
aI0
aI0
aI0
aI-1
aF0.04
aI0
aI0
aI0
aI3
aI0
aI0
aI0
aI0
aI0
aI0
aI0
aI0
aI0
aI0
aVstaff_spirit_lore
p336
aI0
aI0
aI1
aI0
aI0
asI12709
(lp337
I13708
aI0
aNaNaI0
aI0
aI0
aI0
aI0
aI0
aI0
aI0
aI0
aF0.04
aI0
aI0
aI0
aI0
aI0
aI0
aI0
aI0
aI0
aI0
aI0
aI0
aI0
aI0
aI0
aI0
aI0
aI0
aI0
aI0
aI-1
aI0
aI0
aI0
aI0
aI3
aI0
aI0
aI0
aI0
aI0
aI0
aI0
aI0
aI0
aI0
aVstaff_conservation
p338
aI0
aI0
aI1
aI0
aI0
asI12710
(lp339
I13708
aI0
aNaNaI0
aI0
aI0
aI0
aI0
aI0
aI0
aI0
aI0
aF0.05
aI0
aI0
aI0
aI0
aI0
aI0
aI0
aI0
aI0
aI0
aI0
aI0
aI0
aI0
aI0
aI0
aI0
aI0
aI0
aI0
aI-1
aI0
aI0
aI0
aI0
aI3
aI0
aI0
aI0
aI0
aI0
aI0
aI0
aI0
aI0
aI0
aVstaff_harmony
p340
aI0
aI0
aI1
aI0
aI0
asI12900
(lp341
I13711
aI5
aNaNaI1
aI1
aI0
aI0
aI0
aI0
aI0
aI0
aI100
aF0.4
aF0.4
aI-1
aI0
aI0
aI0
aI0
aI0
aI0
aI0
aI0
aI0
aI0
aI0
aI0
aI0
aI0
aI0
aI0
aI0
aI0
aI-1
aI0
aI0
aI1
aI0
aI1
aI1
aI0
aI0
aI0
aI0
aI0
aI0
aI0
aI1
aI1
aVcannon_shoot
p342
aI6
aI1
aI1
aI1
aI0
asI12901
(lp343
I13711
aI5
aNaNaI1
aI1
aI0
aI0
aI-150
aI0
aI-80
aI-20
aI100
aF0.25
aI3
aI-1
aI10
aI1
aI0
aI0
aI3
aI1300
aI1
aI0
aI0
aI0
aI0
aI0
aI0
aI0
aI0
aI0
aI0
aI0
aI-1
aI0
aI0
aI1
aI1
aI2
aI1
aI0
aI0
aI0
aI0
aI0
aI0
aI0
aI1
aI1
aVcannon_round_shot
p344
aI6
aI1
aI1
aI1
aI0
asI12902
(lp345
I13711
aI5
aI14201
aNaF1.5
aI1
aI0
aI0
aI-75
aI0
aI-20
aI-100
aI100
aF0.25
aI3
aI-1
aI5
aI1
aI0
aI0
aI2
aI950
aI1
aI0
aI0
aI0
aI0
aI0
aI0
aI0
aI0
aI0
aI0
aI0
aI100
aI0
aI0
aI1
aI1
aI2
aI1
aI0
aI0
aI0
aI0
aI0
aI0
aI0
aI1
aI1
aVcannon_chain_shot
p346
aI6
aI1
aI1
aI1
aI0
asI12903
(lp347
I13711
aI5
aI14202
aNaI1
aI1
aI0
aI0
aI-80
aI0
aI-50
aI-40
aI100
aF0.25
aI6
aI-1
aI10
aI0
aI0
aI0
aI1
aI900
aI1
aI0
aI0
aI0
aI0
aI0
aI0
aI0
aI0
aI0
aI0
aI0
aI100
aI0
aI0
aI1
aI1
aI2
aI1
aI0
aI0
aI0
aI0
aI0
aI0
aI0
aI1
aI1
aVcannon_grape_shot
p348
aI30
aI1
aI1
aI1
aI0
asI12904
(lp349
I13711
aI5
aI14203
aNaI1
aI1
aI0
aI0
aI-125
aI0
aI-100
aI-40
aI100
aF0.25
aI3
aI-1
aI10
aI1
aI0
aI0
aI3
aI1300
aI1
aI0
aI0
aI2
aI0
aI0
aI0
aI0
aI0
aI1
aI20
aI2
aI100
aI0
aF0.5
aI1
aI1
aI2
aI1
aI0
aI0
aI0
aI0
aI0
aI0
aI0
aI0
aI0
aVcannon_firebrand
p350
aI9
aI1
aI1
aI1
aI0
asI12905
(lp351
I13711
aI5
aI14204
aNaI3
aI1
aI0
aI0
aI-275
aI0
aI-240
aI-60
aI100
aF0.25
aI3
aI-1
aI0
aI0
aI0
aI0
aI1
aI1700
aI0
aI0
aI0
aI0
aI0
aI0
aI0
aI0
aI0
aI0
aI0
aI0
aI100
aI0
aI0
aI1
aI1
aI2
aI1
aI0
aI0
aI0
aI0
aI0
aI0
aI0
aI0
aI0
aVcannon_thunderbolt
p352
aI16
aI1
aI1
aI1
aI0
asI12906
(lp353
I13711
aI5
aI14205
aNaI20
aI1
aI0
aI0
aI-1500
aI0
aI-960
aI-200
aI90
aF0.25
aI10
aI-1
aI25
aI1
aI0
aI0
aI1
aI750
aI1
aI0
aI0
aI0
aI0
aI0
aI0
aI0
aI0
aI0
aI0
aI0
aI100
aI0
aI0
aI1
aI1
aI2
aI1
aI0
aI0
aI0
aI0
aI0
aI0
aI0
aI0
aI0
aVcannon_explosive
p354
aI9
aI1
aI1
aI1
aI0
asI12907
(lp355
I13711
aI5
aI14206
aNaI1
aI1
aI0
aI0
aI-300
aI0
aI-144
aI-30
aI100
aF0.25
aI3
aI-1
aI0
aI0
aI0
aI0
aI3
aI1300
aI0
aI0
aI0
aI0
aI0
aI0
aI0
aI0
aI0
aI0
aI0
aI0
aI100
aI0
aI0
aI1
aI1
aI2
aI1
aI0
aI0
aI0
aI0
aI0
aI0
aI0
aI0
aI0
aVcannon_fury
p356
aI16
aI1
aI1
aI1
aI0
asI12908
(lp357
I13711
aI5
aNaNaI3
aI1
aI0
aI0
aI0
aI0
aI0
aI0
aI100
aF0.25
aI3
aI-1
aI0
aI0
aI0
aI0
aI1
aI750
aI0
aI0
aI0
aI0
aI0
aI0
aI0
aI0
aI0
aI0
aI0
aI0
aI-1
aI0
aI0
aI1
aI1
aI2
aI1
aI0
aI0
aI0
aI0
aI0
aI0
aI0
aI1
aI1
aVcannon_grapple_hook
p358
aI11
aI1
aI1
aI1
aI0
asI12909
(lp359
I13711
aI0
aNaNaI0
aI0
aI0
aI0
aI0
aI0
aI0
aI0
aI0
aF0.06
aI0
aI0
aI0
aI0
aI0
aI0
aI0
aI0
aI0
aI0
aI0
aI0
aI0
aI0
aI0
aI0
aI0
aI0
aI0
aI0
aI-1
aI0
aI0
aI0
aI0
aI3
aI0
aI0
aI0
aI0
aI0
aI0
aI0
aI0
aI1
aI0
aVcannon_scrounger
p360
aI0
aI0
aI1
aI0
aI0
asI12910
(lp361
I13711
aI0
aNaNaI0
aI0
aI0
aI0
aI0
aI0
aI0
aI0
aI0
aF0.05
aI0
aI0
aI0
aI0
aI0
aI0
aI0
aI0
aI0
aI0
aI0
aI0
aI0
aI0
aI0
aI0
aI0
aI0
aI0
aI0
aI-1
aI0
aI0
aI0
aI0
aI3
aI0
aI0
aI0
aI0
aI0
aI0
aI0
aI0
aI0
aI1
aVcannon_barrage
p362
aI0
aI0
aI1
aI0
aI0
asI12911
(lp363
I13711
aI0
aNaNaI0
aI0
aI0
aI0
aI0
aI0
aI0
aI0
aI0
aI2
aI0
aI0
aI0
aI0
aI0
aI0
aI0
aI0
aI0
aI0
aI0
aI4
aI0
aI0
aI0
aI0
aI0
aI1
aI4
aI2
aI-1
aI0
aI0
aI0
aI0
aI3
aI0
aI0
aI0
aI0
aI0
aI0
aI0
aI0
aI0
aI0
aVcannon_shrapnel
p364
aI0
aI0
aI1
aI0
aI0
asI12930
(lp365
I13718
aI5
aNaNaI1
aI1
aI0
aI0
aI0
aI0
aI0
aI0
aI100
aF0.4
aI0
aI-1
aI0
aI0
aI0
aI0
aI0
aI0
aI0
aI0
aI0
aI0
aI0
aI0
aI0
aI0
aI0
aI0
aI0
aI0
aI-1
aI0
aI0
aI1
aI0
aI1
aI1
aI0
aI0
aI0
aI0
aI0
aI0
aI0
aI1
aI1
aVcannon_shoot
p366
aI6
aI1
aI1
aI1
aI0
asI12931
(lp367
I13718
aI5
aNaNaI1
aI1
aI0
aI0
aI-150
aI0
aI-150
aI-100
aI100
aF0.25
aI1
aI-1
aI10
aI0
aI0
aI0
aI6
aI1300
aI0
aI0
aI0
aI0
aI0
aI0
aI0
aI0
aI0
aI0
aI0
aI0
aI-1
aI0
aI0
aI1
aI1
aI2
aI1
aI0
aI0
aI0
aI0
aI0
aI0
aI0
aI1
aI1
aVcannon_round_shot
p368
aI6
aI1
aI1
aI1
aI0
asI12932
(lp369
I13718
aI5
aNaNaF1.5
aI1
aI0
aI0
aI-75
aI0
aI-75
aI-50
aI100
aF0.25
aI2
aI-1
aI5
aI0
aI0
aI0
aI6
aI750
aI0
aI0
aI0
aI0
aI0
aI0
aI0
aI0
aI0
aI0
aI0
aI0
aI-1
aI0
aI0
aI1
aI1
aI2
aI1
aI0
aI0
aI0
aI0
aI0
aI0
aI0
aI1
aI1
aVpir_t_gui_amo_can_targetedshot
p370
aI6
aI1
aI1
aI1
aI0
asI12933
(lp371
I13718
aI5
aNaNaI3
aI1
aI0
aI0
aI0
aI0
aI0
aI0
aI100
aF0.25
aI5
aI-1
aI0
aI0
aI0
aI0
aI4
aI1700
aI0
aI0
aI0
aI82
aI0
aI0
aI0
aI0
aI0
aI0
aI5
aI4
aI-1
aI0
aI0
aI1
aI1
aI2
aI1
aI0
aI0
aI0
aI0
aI0
aI0
aI0
aI1
aI0
aVpir_t_gui_amo_can_smoke
p372
aI16
aI1
aI1
aI1
aI0
asI12934
(lp373
I13718
aI5
aNaNaI3
aI1
aI0
aI0
aI0
aI0
aI-100
aI-100
aI100
aF0.25
aI12
aI-1
aI0
aI0
aI0
aI0
aI6
aI750
aI0
aI0
aI0
aI0
aI0
aI0
aI0
aI0
aI0
aI0
aI0
aI0
aI-1
aI0
aI0
aI1
aI1
aI2
aI1
aI0
aI0
aI0
aI0
aI0
aI0
aI0
aI1
aI1
aVpir_t_gui_amo_can_mine
p374
aI11
aI1
aI1
aI1
aI0
asI12935
(lp375
I13718
aI5
aNaNaI1
aI1
aI0
aI0
aI-125
aI0
aI-125
aI-80
aI100
aF0.25
aI1
aI-1
aI10
aI0
aI0
aI0
aI3
aI1300
aI0
aI0
aI0
aI81
aI0
aI0
aI0
aI0
aI0
aI1
aI20
aI2
aI-1
aI0
aF0.5
aI1
aI1
aI2
aI1
aI0
aI0
aI0
aI0
aI0
aI0
aI0
aI0
aI0
aVcannon_firebrand
p376
aI9
aI1
aI1
aI1
aI0
asI12936
(lp377
I13718
aI5
aNaNaI1
aI1
aI0
aI0
aI-150
aI0
aI-150
aI-50
aI100
aF0.25
aI2
aI-1
aI10
aI0
aI0
aI0
aI6
aI1300
aI0
aI0
aI0
aI0
aI0
aI0
aI0
aI0
aI0
aI0
aI0
aI0
aI-1
aI0
aI0
aI1
aI1
aI2
aI1
aI0
aI0
aI0
aI0
aI0
aI0
aI0
aI1
aI1
aVpir_t_gui_amo_can_scatter
p378
aI30
aI1
aI1
aI1
aI0
asI12937
(lp379
I13718
aI5
aNaNaI1
aI1
aI0
aI0
aI0
aI0
aI0
aI0
aI100
aF0.25
aI24
aI-1
aI10
aI0
aI0
aI0
aI1
aI1300
aI0
aI0
aI0
aI0
aI0
aI0
aI0
aI0
aI0
aI1
aI0
aI0
aI-1
aI0
aF0.5
aI1
aI1
aI2
aI1
aI0
aI0
aI0
aI0
aI0
aI0
aI0
aI0
aI0
aVpir_t_gui_amo_can_powderKeg
p380
aI9
aI1
aI1
aI1
aI0
asI12938
(lp381
I13718
aI5
aNaNaI1
aI1
aI0
aI0
aI-400
aI0
aI-400
aI-320
aI100
aF0.25
aI1
aI-1
aI0
aI0
aI0
aI0
aI3
aI5000
aI0
aI0
aI0
aI0
aI0
aI0
aI0
aI0
aI0
aI0
aI0
aI0
aI-1
aI0
aI0
aI1
aI1
aI2
aI1
aI0
aI0
aI0
aI0
aI0
aI0
aI0
aI0
aI0
aVpir_t_gui_amo_can_bullet
p382
aI16
aI1
aI1
aI1
aI0
asI12939
(lp383
I13718
aI5
aNaNaI1
aI1
aI0
aI0
aI-100
aI0
aI-300
aI-200
aI100
aF0.25
aI12
aI-1
aI0
aI0
aI0
aI0
aI3
aI1300
aI0
aI0
aI0
aI0
aI0
aI0
aI0
aI0
aI0
aI0
aI0
aI0
aI-1
aI0
aI0
aI1
aI1
aI2
aI1
aI0
aI0
aI0
aI0
aI0
aI0
aI0
aI0
aI0
aVpir_t_gui_amo_can_iceshot
p384
aI16
aI1
aI1
aI1
aI0
asI12940
(lp385
I13718
aI5
aNaNaI1
aI1
aI0
aI0
aI-300
aI0
aI-300
aI-150
aI100
aF0.25
aI4
aI-1
aI70
aI0
aI0
aI0
aI4
aI1300
aI1
aI0
aI0
aI0
aI0
aI0
aI0
aI0
aI0
aI0
aI0
aI0
aI-1
aI0
aI0
aI1
aI1
aI2
aI1
aI0
aI0
aI0
aI0
aI0
aI0
aI0
aI0
aI0
aVcannon_explosive
p386
aI16
aI1
aI1
aI1
aI0
asI12941
(lp387
I13718
aI5
aNaNaI1
aI1
aI0
aI0
aI-300
aI0
aI-2440
aI-2440
aI100
aF0.25
aI14
aI-1
aI0
aI0
aI0
aI0
aI2
aI1300
aI0
aI0
aI0
aI0
aI2
aI0
aI0
aI0
aI0
aI0
aI0
aI0
aI-1
aI0
aI0
aI1
aI1
aI2
aI1
aI0
aI0
aI0
aI0
aI0
aI0
aI0
aI0
aI0
aVpir_t_gui_amo_can_chum
p388
aI16
aI1
aI1
aI1
aI0
asI12942
(lp389
I13718
aI5
aNaNaI1
aI1
aI0
aI0
aI-500
aI0
aI-500
aI-100
aI100
aF0.25
aI8
aI-1
aI200
aI0
aI0
aI0
aI1
aI1300
aI1
aI0
aI0
aI81
aI0
aI0
aI0
aI0
aI0
aI0
aI20
aI2
aI-1
aI0
aI0
aI1
aI1
aI2
aI1
aI0
aI0
aI0
aI0
aI0
aI0
aI0
aI0
aI0
aVpir_t_gui_amo_can_firestorm
p390
aI16
aI1
aI1
aI1
aI0
asI12943
(lp391
I13718
aI5
aNaNaI1
aI1
aI0
aI0
aI0
aI0
aI0
aI0
aI100
aF0.25
aI0
aI-1
aI0
aI0
aI0
aI0
aI3
aI1300
aI0
aI0
aI0
aI0
aI0
aI0
aI0
aI0
aI0
aI0
aI0
aI0
aI-1
aI0
aI0
aI1
aI1
aI2
aI1
aI0
aI0
aI0
aI0
aI0
aI0
aI0
aI0
aI0
aVcannon_round_shot
p392
aI16
aI1
aI1
aI1
aI0
asI12944
(lp393
I13718
aI5
aNaNaI3
aI1
aI0
aI0
aI0
aI0
aI-1200
aI-1200
aI100
aF0.25
aI24
aI-1
aI0
aI0
aI0
aI0
aI1
aI750
aI0
aI0
aI0
aI0
aI0
aI0
aI0
aI0
aI0
aI0
aI0
aI0
aI-1
aI0
aI0
aI1
aI1
aI2
aI1
aI0
aI0
aI0
aI0
aI0
aI0
aI0
aI1
aI1
aVpir_t_gui_amo_can_mine
p394
aI11
aI1
aI1
aI1
aI0
asI12945
(lp395
I13718
aI5
aNaNaI3
aI1
aI0
aI0
aI0
aI0
aI-800
aI-800
aI100
aF0.25
aI0
aI-1
aI0
aI0
aI0
aI0
aI6
aI750
aI0
aI0
aI0
aI0
aI0
aI0
aI0
aI0
aI0
aI0
aI0
aI0
aI-1
aI0
aI0
aI1
aI1
aI2
aI1
aI0
aI0
aI0
aI0
aI0
aI0
aI0
aI1
aI1
aVpir_t_gui_amo_can_mine
p396
aI11
aI1
aI1
aI1
aI0
asI12946
(lp397
I13718
aI5
aNaNaI1
aI1
aI0
aI0
aI-100
aI0
aI-100
aI0
aI100
aF0.25
aI0
aI-1
aI0
aI0
aI0
aI0
aI3
aI1300
aI0
aI0
aI0
aI83
aI0
aI0
aI0
aI0
aI0
aI0
aI5
aI4
aI-1
aI0
aI0
aI1
aI1
aI2
aI1
aI0
aI0
aI0
aI0
aI0
aI0
aI0
aI0
aI0
aVpir_t_gui_amo_can_iceshot
p398
aI16
aI1
aI1
aI1
aI0
asS'columnHeadings'
p399
(dp400
VANIM_TIME_INDEX
p401
I54
sVNPC_MODIFIER
p402
I53
sVREPUTATION_INDEX
p403
I4
sVSELF_HP_INDEX
p404
I6
sVNEED_SIGHT
p405
I30
sVATTACK_CLASS_INDEX
p406
I1
sVINSTANT_INDEX
p407
I27
sVSKILL_ICON_INDEX
p408
I50
sVAREA_EFFECT_INDEX
p409
I16
sVACCURACY_INDEX
p410
I12
sVFREE_INDEX
p411
I48
sVSHIP_ACCEL_INDEX
p412
I41
sVDURATION_INDEX
p413
I32
sVMAX_CHARGE_INDEX
p414
I35
sVSELF_MOJO_INDEX
p415
I7
sVREPUTATION_CATEGORY_INDEX
p416
I0
sVLINKED_SKILL
p417
I3
sVNEED_TARGET_INDEX
p418
I28
sVPROJECTILE_POWER_INDEX
p419
I21
sVUSABLE_IN_AIR
p420
I40
sVSKILL_TYPE
p421
I38
sVTARGET_MOJO_INDEX
p422
I9
sVREACTION_DELAY_INDEX
p423
I36
sVSHOUT_INDEX
p424
I47
sVFRIENDLY_FIRE_INDEX
p425
I19
sVPVP_INDEX
p426
I49
sVSPLIT_TARGET_INDEX
p427
I29
sVUPGRADE_INDEX
p428
I13
sVRECUR_INDEX
p429
I33
sVUNATTUNE_INDEX
p430
I24
sVSHIP_MAXTURN_INDEX
p431
I46
sVEFFECT_FLAG_INDEX
p432
I25
sVSELF_USE_INDEX
p433
I18
sVAREA_EFFECT_SELF_DAMAGE_INDEX
p434
I17
sVAMMO_INVENTORY_TYPE
p435
I2
sVIS_PROJECTILE_INDEX
p436
I5
sVHOSTILE_BUFF
p437
I31
sVSKILL_TRACK_INDEX
p438
I39
sVTARGET_HP_INDEX
p439
I8
sVINTERRUPT_INDEX
p440
I23
sVSHIP_REVACCEL_INDEX
p441
I43
sVCENTER_VFX
p442
I52
sVMAX_QUANTITY_INDEX
p443
I34
sVSHIP_MAXSPEED_INDEX
p444
I42
sVNUM_HIT_INDEX
p445
I37
sVAREA_SHAPE_INDEX
p446
I22
sVHULL_HP_INDEX
p447
I10
sVDELAY_INDEX
p448
I26
sVSHIP_TURNRATE_INDEX
p449
I45
sVHIT_VFX
p450
I51
sVVOLLEY_INDEX
p451
I20
sVSAIL_HP_INDEX
p452
I11
sVRECHARGE_INDEX
p453
I14
sVRANGE_INDEX
p454
I15
sVSHIP_REVMAXSPEED_INDEX
p455
I44
sVNEED_AREA_ANIM_INDEX
p456
I55
ssI12400
(lp457
I13706
aI1
aNaNaI1
aI0
aI0
aI0
aI-9
aI0
aI0
aI0
aI100
aF0.25
aF0.5
aI6
aI0
aI0
aI0
aI0
aI1
aI0
aI0
aI0
aI0
aI26
aI0
aI0
aI1
aI0
aI0
aI1
aI3
aI0
aI-1
aI0
aF0.2
aI1
aI0
aI1
aI1
aI0
aI0
aI0
aI0
aI0
aI0
aI0
aI1
aI1
aVdagger_cut
p458
aI11
aI1
aF0.75
aF0.75
aI0
asI12401
(lp459
I13706
aI1
aNaNaI2
aI0
aI0
aI0
aI-26
aI0
aI0
aI0
aI100
aF0.25
aF0.5
aI6
aI0
aI0
aI0
aI0
aI1
aI0
aI0
aI0
aI0
aI26
aI0
aI0
aI1
aI0
aI0
aI1
aI3
aI0
aI-1
aI0
aF0.2
aI2
aI0
aI1
aI1
aI0
aI0
aI0
aI0
aI0
aI0
aI0
aI1
aI1
aVdagger_gouge
p460
aI12
aI1
aI1
aF0.583
aI0
asI12402
(lp461
I13706
aI1
aNaNaI2
aI0
aI0
aI0
aI-44
aI0
aI0
aI0
aI100
aF0.25
aF0.5
aI6
aI0
aI0
aI0
aI0
aI1
aI0
aI0
aI0
aI0
aI26
aI0
aI0
aI1
aI0
aI0
aI1
aI3
aI0
aI-1
aI0
aF0.56
aI1
aI0
aI1
aI1
aI0
aI0
aI0
aI0
aI0
aI0
aI0
aI0
aI0
aVdagger_swipe
p462
aI13
aI1
aF1.5
aF0.958
aI0
asI12403
(lp463
I13706
aI1
aNaNaI3
aI0
aI0
aI0
aI-68
aI0
aI0
aI0
aI100
aF0.25
aF0.5
aI6
aI0
aI0
aI0
aI0
aI1
aI0
aI0
aI0
aI0
aI26
aI0
aI0
aI1
aI0
aI0
aI1
aI3
aI0
aI-1
aI0
aF0.2
aI3
aI0
aI1
aI1
aI0
aI0
aI0
aI0
aI0
aI0
aI0
aI0
aI0
aVdagger_impale
p464
aI14
aI1
aI2
aF1.5
aI0
asI12404
(lp465
I13706
aI0
aNaNaI0
aI0
aI0
aI0
aI0
aI0
aI0
aI0
aI0
aF0.07
aI0
aI0
aI0
aI0
aI0
aI0
aI0
aI0
aI0
aI0
aI0
aI0
aI0
aI0
aI0
aI0
aI0
aI0
aI0
aI0
aI-1
aI0
aI0
aI0
aI0
aI3
aI0
aI0
aI0
aI0
aI0
aI0
aI0
aI0
aI0
aI0
aVcutlass_finesse
p466
aI0
aI0
aI1
aI0
aI0
asI13000
(lp467
I0
aI0
aNaNaI0
aI0
aI0
aI0
aI0
aI0
aI0
aI0
aI100
aI0
aI50
aI0
aI0
aI0
aI1
aI1
aI0
aI0
aI0
aI0
aI0
aI0
aI0
aI1
aI0
aI0
aI0
aI0
aI0
aI0
aI-1
aI0
aF0.4
aI1
aI0
aI1
aI1
aI0
aI0
aI0
aI0
aI0
aI0
aI0
aI1
aI0
aVpir_t_ico_pot_tonic
p468
aI0
aI1
aI1
aF0.94
aI0
asI13001
(lp469
I0
aI0
aNaNaI0
aI0
aI0
aI0
aI0
aI0
aI0
aI0
aI100
aI0
aI0
aI0
aI0
aI0
aI1
aI1
aI0
aI0
aI0
aI0
aI0
aI0
aI0
aI1
aI0
aI0
aI0
aI0
aI0
aI0
aI-1
aI0
aF0.4
aI1
aI0
aI1
aI1
aI0
aI0
aI0
aI0
aI0
aI0
aI0
aI1
aI0
aVpir_t_ico_pot_tonic
p470
aI0
aI1
aI1
aF0.94
aI0
asI3000
(lp471
I13713
aI1
aNaNaI1
aI0
aI0
aI0
aI-150
aI0
aI0
aI0
aI100
aF0.25
aI2
aI8
aI0
aI0
aI0
aI0
aI1
aI0
aI0
aI1
aI0
aI26
aI0
aI0
aI1
aI0
aI0
aI1
aI3
aI0
aI-1
aI0
aF0.4
aI2
aI1
aI1
aI1
aI0
aI0
aI0
aI0
aI0
aI0
aI0
aI0
aI0
aVcutlass_cleave
p472
aI5
aI1
aI1
aI1
aI0
asI3001
(lp473
I13713
aI2
aNaNaI1
aI0
aI0
aI0
aI-80
aI0
aI0
aI0
aI100
aF0.25
aI2
aI100
aI0
aI0
aI0
aI0
aI1
aI0
aI0
aI1
aI0
aI26
aI0
aI0
aI1
aI0
aI0
aI1
aI3
aI0
aI-1
aI0
aF0.4
aI2
aI1
aI1
aI1
aI0
aI0
aI0
aI0
aI0
aI0
aI0
aI0
aI0
aVstaff_concentration
p474
aI0
aI1
aF0.75
aI1
aI0
asI3002
(lp475
I13713
aI3
aNaNaI1
aI0
aI0
aI0
aI-30
aI0
aI0
aI0
aI100
aF0.25
aI30
aI60
aI60
aI0
aI0
aI0
aI1
aI0
aI1
aI1
aI1
aI8
aI0
aI0
aI0
aI0
aI0
aI1
aI20
aI0
aI-1
aI0
aF0.4
aI2
aI1
aI1
aI1
aI0
aI0
aI0
aI0
aI0
aI0
aI0
aI0
aI0
aVvoodoo_shackle
p476
aI40
aI1
aF0.25
aI1
aI0
asI3003
(lp477
I13713
aI3
aNaNaI1
aI0
aI0
aI-800
aI-500
aI0
aI0
aI0
aI100
aF0.25
aI30
aI50
aI40
aI0
aI0
aI0
aI1
aI0
aI1
aI1
aI1
aI26
aI0
aI0
aI0
aI0
aI0
aI1
aI5
aI0
aI-1
aI0
aF0.4
aI2
aI1
aI1
aI1
aI0
aI0
aI0
aI0
aI0
aI0
aI0
aI0
aI0
aVstaff_shockwave
p478
aI40
aI1
aI4
aI1
aI0
asI3004
(lp479
I13713
aI3
aNaNaI1
aI0
aI0
aI-200
aI0
aI0
aI0
aI0
aI100
aF0.25
aI30
aI60
aI0
aI0
aI0
aI0
aI1
aI0
aI0
aI0
aI0
aI38
aI0
aI0
aI0
aI0
aI0
aI1
aI0
aI0
aI-1
aI0
aF0.4
aI2
aI1
aI1
aI1
aI0
aI0
aI0
aI0
aI0
aI0
aI0
aI0
aI0
aVvoodoo_curse
p480
aI0
aI1
aI0
aI1
aI0
asI3005
(lp481
I13713
aI2
aNaNaI1
aI0
aI0
aI0
aI-120
aI0
aI0
aI0
aI100
aF0.25
aI6
aI80
aI25
aI0
aI0
aI0
aI1
aI0
aI1
aI1
aI1
aI6
aI0
aI0
aI1
aI0
aI0
aI1
aI10
aI0
aI-1
aI0
aF0.4
aI2
aI1
aI1
aI1
aI0
aI0
aI0
aI0
aI0
aI0
aI0
aI0
aI0
aVgrenade_explosion
p482
aI0
aI1
aF1.5
aI1
aI0
asI3006
(lp483
I13713
aI3
aNaNaI1
aI0
aI0
aI0
aI-60
aI0
aI0
aI0
aI100
aF0.25
aI15
aI70
aI60
aI0
aI0
aI0
aI1
aI0
aI1
aI0
aI0
aI39
aI0
aI0
aI0
aI0
aI0
aI1
aI20
aI2
aI-1
aI0
aF0.4
aI2
aI1
aI1
aI1
aI0
aI0
aI0
aI0
aI0
aI0
aI0
aI0
aI0
aVstaff_harmony
p484
aI40
aI1
aI1
aI1
aI0
asI3007
(lp485
I13713
aI1
aNaNaI1
aI0
aI0
aI0
aI-600
aI0
aI0
aI0
aI100
aF0.25
aI10
aI8
aI0
aI0
aI0
aI0
aI1
aI0
aI0
aI0
aI0
aI26
aI0
aI0
aI1
aI0
aI0
aI1
aI3
aI0
aI-1
aI0
aF0.4
aI2
aI1
aI1
aI1
aI0
aI0
aI0
aI0
aI0
aI0
aI0
aI0
aI0
aVcutlass_bladestorm
p486
aI10
aI1
aI5
aI1
aI0
asI11200
(lp487
I0
aI0
aI15001
aNaI0
aI0
aI200
aI50
aI0
aI0
aI0
aI0
aI100
aI0
aI0
aI-1
aI0
aI0
aI0
aI1
aI1
aI0
aI0
aI0
aI0
aI0
aI0
aI1
aI0
aI0
aI0
aI0
aI0
aI0
aI3
aI0
aI0
aI1
aI1
aI4
aI1
aI0
aI0
aI0
aI0
aI0
aI0
aI0
aI1
aI0
aVpir_t_ico_pot_tonic
p488
aI38
aI1
aI1
aI0
aI0
asI11201
(lp489
I0
aI0
aI15002
aNaI0
aI0
aI350
aI100
aI0
aI0
aI0
aI0
aI100
aI0
aI0
aI-1
aI0
aI0
aI0
aI1
aI1
aI0
aI0
aI0
aI0
aI0
aI0
aI1
aI0
aI0
aI0
aI0
aI0
aI0
aI3
aI0
aI0
aI1
aI1
aI4
aI1
aI0
aI0
aI0
aI0
aI0
aI0
aI0
aI1
aI0
aVpir_t_ico_pot_tonic
p490
aI38
aI1
aI1
aI0
aI0
asI11202
(lp491
I0
aI0
aI15003
aNaI0
aI0
aI650
aI250
aI0
aI0
aI0
aI0
aI100
aI0
aI0
aI-1
aI0
aI0
aI0
aI1
aI1
aI0
aI0
aI0
aI0
aI0
aI0
aI1
aI0
aI0
aI0
aI0
aI0
aI0
aI3
aI0
aI0
aI1
aI1
aI4
aI1
aI0
aI0
aI0
aI0
aI0
aI0
aI0
aI1
aI0
aVpir_t_ico_pot_holyWater
p492
aI38
aI1
aI1
aI0
aI0
asI11203
(lp493
I0
aI0
aI15004
aNaI0
aI0
aI1000
aI375
aI0
aI0
aI0
aI0
aI100
aI0
aI0
aI-1
aI0
aI0
aI0
aI1
aI1
aI0
aI0
aI0
aI0
aI0
aI0
aI1
aI0
aI0
aI0
aI0
aI0
aI0
aI3
aI0
aI0
aI1
aI1
aI4
aI1
aI0
aI0
aI0
aI0
aI0
aI0
aI0
aI1
aI0
aVpir_t_ico_pot_elixir
p494
aI38
aI1
aI1
aI0
aI0
asI11204
(lp495
I0
aI0
aI15005
aNaI0
aI0
aI1500
aI500
aI0
aI0
aI0
aI0
aI100
aI0
aI0
aI-1
aI0
aI0
aI0
aI1
aI1
aI0
aI0
aI0
aI0
aI0
aI0
aI1
aI0
aI0
aI0
aI0
aI0
aI0
aI3
aI0
aI0
aI1
aI1
aI4
aI1
aI0
aI0
aI0
aI0
aI0
aI0
aI0
aI1
aI0
aVpir_t_ico_pot_miracleWater
p496
aI38
aI1
aI1
aI0
aI0
asI11205
(lp497
I0
aI0
aI15006
aNaI0
aI0
aI0
aI0
aI0
aI0
aI5000
aI2000
aI100
aI0
aI0
aI-1
aI0
aI0
aI0
aI1
aI1
aI0
aI0
aI0
aI0
aI28
aI0
aI1
aI1
aI0
aI0
aI0
aI0
aI0
aI2
aI0
aI0
aI1
aI1
aI4
aI1
aI0
aI0
aI0
aI0
aI0
aI0
aI0
aI1
aI1
aVsail_come_about
p498
aI0
aI1
aI1
aI0
aI0
asI11206
(lp499
I0
aI0
aI15007
aNaI0
aI0
aI2000
aI800
aI0
aI0
aI0
aI0
aI100
aI0
aI0
aI-1
aI0
aI0
aI0
aI1
aI1
aI0
aI0
aI0
aI0
aI0
aI0
aI1
aI0
aI0
aI0
aI0
aI0
aI0
aI5
aI0
aI0
aI1
aI1
aI4
aI1
aI0
aI0
aI0
aI0
aI0
aI0
aI0
aI1
aI0
aVpir_t_ico_pot_porkTonic
p500
aI38
aI1
aI1
aI0
aI0
asI11207
(lp501
I0
aI0
aI15008
aNaI0
aI0
aI0
aI0
aI0
aI0
aI0
aI0
aI100
aI0
aI0
aI-1
aI0
aI0
aI0
aI1
aI1
aI0
aI0
aI0
aI0
aI41
aI0
aI1
aI0
aI0
aI0
aI0
aI0
aI0
aI3
aI0
aI0
aI1
aI1
aI4
aI1
aI0
aI0
aI0
aI0
aI0
aI0
aI0
aI1
aI0
aVpir_t_gui_pot_cannonDmgUp
p502
aI38
aI1
aI1
aI0
aI0
asI11208
(lp503
I0
aI0
aI15009
aNaI0
aI0
aI0
aI0
aI0
aI0
aI0
aI0
aI100
aI0
aI0
aI-1
aI0
aI0
aI0
aI1
aI1
aI0
aI0
aI0
aI0
aI42
aI0
aI1
aI0
aI0
aI0
aI0
aI0
aI0
aI3
aI0
aI0
aI1
aI1
aI4
aI1
aI0
aI0
aI0
aI0
aI0
aI0
aI0
aI1
aI0
aVpir_t_gui_pot_cannonDmgUp
p504
aI38
aI1
aI1
aI0
aI0
asI11209
(lp505
I0
aI0
aI15010
aNaI0
aI0
aI0
aI0
aI0
aI0
aI0
aI0
aI100
aI0
aI0
aI-1
aI0
aI0
aI0
aI1
aI1
aI0
aI0
aI0
aI0
aI43
aI0
aI1
aI0
aI0
aI0
aI0
aI0
aI0
aI3
aI0
aI0
aI1
aI1
aI4
aI1
aI0
aI0
aI0
aI0
aI0
aI0
aI0
aI1
aI0
aVpir_t_gui_pot_cannonDmgUp
p506
aI38
aI1
aI1
aI0
aI0
asI11210
(lp507
I0
aI0
aI15011
aNaI0
aI0
aI0
aI0
aI0
aI0
aI0
aI0
aI100
aI0
aI0
aI-1
aI0
aI0
aI0
aI1
aI1
aI0
aI0
aI0
aI0
aI44
aI0
aI1
aI0
aI0
aI0
aI0
aI0
aI0
aI3
aI0
aI0
aI1
aI1
aI4
aI1
aI0
aI0
aI0
aI0
aI0
aI0
aI0
aI1
aI0
aVpir_t_gui_pot_gunDmgUp
p508
aI38
aI1
aI1
aI0
aI0
asI11211
(lp509
I0
aI0
aI15012
aNaI0
aI0
aI0
aI0
aI0
aI0
aI0
aI0
aI100
aI0
aI0
aI-1
aI0
aI0
aI0
aI1
aI1
aI0
aI0
aI0
aI0
aI45
aI0
aI1
aI0
aI0
aI0
aI0
aI0
aI0
aI3
aI0
aI0
aI1
aI1
aI4
aI1
aI0
aI0
aI0
aI0
aI0
aI0
aI0
aI1
aI0
aVpir_t_gui_pot_gunDmgUp
p510
aI38
aI1
aI1
aI0
aI0
asI11212
(lp511
I0
aI0
aI15013
aNaI0
aI0
aI0
aI0
aI0
aI0
aI0
aI0
aI100
aI0
aI0
aI-1
aI0
aI0
aI0
aI1
aI1
aI0
aI0
aI0
aI0
aI46
aI0
aI1
aI0
aI0
aI0
aI0
aI0
aI0
aI3
aI0
aI0
aI1
aI1
aI4
aI1
aI0
aI0
aI0
aI0
aI0
aI0
aI0
aI1
aI0
aVpir_t_gui_pot_gunDmgUp
p512
aI38
aI1
aI1
aI0
aI0
asI11213
(lp513
I0
aI0
aI15014
aNaI0
aI0
aI0
aI0
aI0
aI0
aI0
aI0
aI100
aI0
aI0
aI-1
aI0
aI0
aI0
aI1
aI1
aI0
aI0
aI0
aI0
aI47
aI0
aI1
aI0
aI0
aI0
aI0
aI0
aI0
aI3
aI0
aI0
aI1
aI1
aI4
aI1
aI0
aI0
aI0
aI0
aI0
aI0
aI0
aI1
aI0
aVpir_t_gui_pot_swordDmgUp
p514
aI38
aI1
aI1
aI0
aI0
asI11214
(lp515
I0
aI0
aI15015
aNaI0
aI0
aI0
aI0
aI0
aI0
aI0
aI0
aI100
aI0
aI0
aI-1
aI0
aI0
aI0
aI1
aI1
aI0
aI0
aI0
aI0
aI48
aI0
aI1
aI0
aI0
aI0
aI0
aI0
aI0
aI3
aI0
aI0
aI1
aI1
aI4
aI1
aI0
aI0
aI0
aI0
aI0
aI0
aI0
aI1
aI0
aVpir_t_gui_pot_swordDmgUp
p516
aI38
aI1
aI1
aI0
aI0
asI11215
(lp517
I0
aI0
aI15016
aNaI0
aI0
aI0
aI0
aI0
aI0
aI0
aI0
aI100
aI0
aI0
aI-1
aI0
aI0
aI0
aI1
aI1
aI0
aI0
aI0
aI0
aI49
aI0
aI1
aI0
aI0
aI0
aI0
aI0
aI0
aI3
aI0
aI0
aI1
aI1
aI4
aI1
aI0
aI0
aI0
aI0
aI0
aI0
aI0
aI1
aI0
aVpir_t_gui_pot_swordDmgUp
p518
aI38
aI1
aI1
aI0
aI0
asI11216
(lp519
I0
aI0
aI15017
aNaI0
aI0
aI0
aI0
aI0
aI0
aI0
aI0
aI100
aI0
aI0
aI-1
aI0
aI0
aI0
aI1
aI1
aI0
aI0
aI0
aI0
aI50
aI0
aI1
aI0
aI0
aI0
aI0
aI0
aI0
aI3
aI0
aI0
aI1
aI1
aI4
aI1
aI0
aI0
aI0
aI0
aI0
aI0
aI0
aI1
aI0
aVpir_t_gui_pot_voodooDmgUp
p520
aI38
aI1
aI1
aI0
aI0
asI11217
(lp521
I0
aI0
aI15018
aNaI0
aI0
aI0
aI0
aI0
aI0
aI0
aI0
aI100
aI0
aI0
aI-1
aI0
aI0
aI0
aI1
aI1
aI0
aI0
aI0
aI0
aI51
aI0
aI1
aI0
aI0
aI0
aI0
aI0
aI0
aI3
aI0
aI0
aI1
aI1
aI4
aI1
aI0
aI0
aI0
aI0
aI0
aI0
aI0
aI1
aI0
aVpir_t_gui_pot_voodooDmgUp
p522
aI38
aI1
aI1
aI0
aI0
asI11218
(lp523
I0
aI0
aI15019
aNaI0
aI0
aI0
aI0
aI0
aI0
aI0
aI0
aI100
aI0
aI0
aI-1
aI0
aI0
aI0
aI1
aI1
aI0
aI0
aI0
aI0
aI52
aI0
aI1
aI0
aI0
aI0
aI0
aI0
aI0
aI3
aI0
aI0
aI1
aI1
aI4
aI1
aI0
aI0
aI0
aI0
aI0
aI0
aI0
aI1
aI0
aVpir_t_gui_pot_voodooDmgUp
p524
aI38
aI1
aI1
aI0
aI0
asI11219
(lp525
I0
aI0
aI15020
aNaI0
aI0
aI0
aI0
aI0
aI0
aI0
aI0
aI100
aI0
aI0
aI-1
aI0
aI0
aI0
aI1
aI1
aI0
aI0
aI0
aI0
aI53
aI0
aI1
aI0
aI0
aI0
aI0
aI0
aI0
aI3
aI0
aI0
aI1
aI1
aI4
aI1
aI0
aI0
aI0
aI0
aI0
aI0
aI0
aI1
aI0
aVpir_t_gui_pot_haste
p526
aI38
aI1
aI1
aI0
aI0
asI11220
(lp527
I0
aI0
aI15021
aNaI0
aI0
aI0
aI0
aI0
aI0
aI0
aI0
aI100
aI0
aI0
aI-1
aI0
aI0
aI0
aI1
aI1
aI0
aI0
aI0
aI0
aI54
aI0
aI1
aI0
aI0
aI0
aI0
aI0
aI0
aI3
aI0
aI0
aI1
aI1
aI4
aI1
aI0
aI0
aI0
aI0
aI0
aI0
aI0
aI1
aI0
aVpir_t_gui_pot_haste
p528
aI38
aI1
aI1
aI0
aI0
asI11221
(lp529
I0
aI0
aI15022
aNaI0
aI0
aI0
aI0
aI0
aI0
aI0
aI0
aI100
aI0
aI0
aI-1
aI0
aI0
aI0
aI1
aI1
aI0
aI0
aI0
aI0
aI55
aI0
aI1
aI0
aI0
aI0
aI0
aI0
aI0
aI3
aI0
aI0
aI1
aI1
aI4
aI1
aI0
aI0
aI0
aI0
aI0
aI0
aI0
aI1
aI0
aVpir_t_gui_pot_haste
p530
aI38
aI1
aI1
aI0
aI0
asI11222
(lp531
I0
aI0
aI15023
aNaI0
aI0
aI0
aI0
aI0
aI0
aI0
aI0
aI100
aI0
aI0
aI-1
aI0
aI0
aI0
aI1
aI1
aI0
aI0
aI0
aI0
aI56
aI0
aI1
aI0
aI0
aI0
aI0
aI0
aI0
aI3
aI0
aI0
aI1
aI1
aI4
aI1
aI0
aI0
aI0
aI0
aI0
aI0
aI0
aI1
aI0
aVpir_t_gui_pot_repBoost
p532
aI38
aI1
aI1
aI0
aI0
asI11223
(lp533
I0
aI0
aI15024
aNaI0
aI0
aI0
aI0
aI0
aI0
aI0
aI0
aI100
aI0
aI0
aI-1
aI0
aI0
aI0
aI1
aI1
aI0
aI0
aI0
aI0
aI57
aI0
aI1
aI0
aI0
aI0
aI0
aI0
aI0
aI3
aI0
aI0
aI1
aI1
aI4
aI1
aI0
aI0
aI0
aI0
aI0
aI0
aI0
aI1
aI0
aVpir_t_gui_pot_repBoost
p534
aI38
aI1
aI1
aI0
aI0
asI11224
(lp535
I0
aI0
aI15025
aNaI0
aI0
aI0
aI0
aI0
aI0
aI0
aI0
aI100
aI0
aI0
aI-1
aI0
aI0
aI0
aI1
aI1
aI0
aI0
aI0
aI0
aI58
aI0
aI1
aI0
aI0
aI0
aI0
aI0
aI0
aI3
aI0
aI0
aI1
aI1
aI4
aI1
aI0
aI0
aI0
aI0
aI0
aI0
aI0
aI1
aI0
aVpir_t_gui_pot_gold
p536
aI38
aI1
aI1
aI0
aI0
asI11225
(lp537
I0
aI0
aI15026
aNaI0
aI0
aI0
aI0
aI0
aI0
aI0
aI0
aI100
aI0
aI0
aI-1
aI0
aI0
aI0
aI1
aI1
aI0
aI0
aI0
aI0
aI59
aI0
aI1
aI0
aI0
aI0
aI0
aI0
aI0
aI3
aI0
aI0
aI1
aI1
aI4
aI1
aI0
aI0
aI0
aI0
aI0
aI0
aI0
aI1
aI0
aVpir_t_gui_pot_gold
p538
aI38
aI1
aI1
aI0
aI0
asI11226
(lp539
I0
aI0
aI15027
aNaI0
aI0
aI0
aI0
aI0
aI0
aI0
aI0
aI100
aI0
aI0
aI-1
aI0
aI0
aI0
aI1
aI1
aI0
aI0
aI0
aI0
aI60
aI0
aI1
aI0
aI0
aI0
aI0
aI0
aI0
aI3
aI0
aI0
aI1
aI1
aI4
aI1
aI0
aI0
aI0
aI0
aI0
aI0
aI0
aI1
aI0
aVpir_t_gui_pot_invisibility
p540
aI38
aI1
aI1
aI0
aI0
asI11227
(lp541
I0
aI0
aI15028
aNaI0
aI0
aI0
aI0
aI0
aI0
aI0
aI0
aI100
aI0
aI0
aI-1
aI0
aI0
aI0
aI1
aI1
aI0
aI0
aI0
aI0
aI61
aI0
aI1
aI0
aI0
aI0
aI0
aI0
aI0
aI3
aI0
aI0
aI1
aI1
aI4
aI1
aI0
aI0
aI0
aI0
aI0
aI0
aI0
aI1
aI0
aVpir_t_gui_pot_invisibility
p542
aI38
aI1
aI1
aI0
aI0
asI11228
(lp543
I0
aI0
aI15029
aNaI0
aI0
aI0
aI0
aI0
aI0
aI0
aI0
aI100
aI0
aI0
aI-1
aI0
aI0
aI0
aI1
aI1
aI0
aI0
aI0
aI0
aI62
aI0
aI1
aI0
aI0
aI0
aI0
aI0
aI0
aI3
aI0
aI0
aI1
aI1
aI4
aI1
aI0
aI0
aI0
aI0
aI0
aI0
aI0
aI1
aI0
aVpir_t_gui_pot_healthRegeneration
p544
aI38
aI1
aI1
aI0
aI0
asI11229
(lp545
I0
aI0
aI15030
aNaI0
aI0
aI0
aI0
aI0
aI0
aI0
aI0
aI100
aI0
aI0
aI-1
aI0
aI0
aI0
aI1
aI1
aI0
aI0
aI0
aI0
aI63
aI0
aI1
aI0
aI0
aI0
aI0
aI0
aI0
aI3
aI0
aI0
aI1
aI1
aI4
aI1
aI0
aI0
aI0
aI0
aI0
aI0
aI0
aI1
aI0
aVpir_t_gui_pot_healthRegeneration
p546
aI38
aI1
aI1
aI0
aI0
asI11230
(lp547
I0
aI0
aI15031
aNaI0
aI0
aI0
aI0
aI0
aI0
aI0
aI0
aI100
aI0
aI0
aI-1
aI0
aI0
aI0
aI1
aI1
aI0
aI0
aI0
aI0
aI64
aI0
aI1
aI0
aI0
aI0
aI0
aI0
aI0
aI3
aI0
aI0
aI1
aI1
aI4
aI1
aI0
aI0
aI0
aI0
aI0
aI0
aI0
aI1
aI0
aVpir_t_gui_pot_healthRegeneration
p548
aI38
aI1
aI1
aI0
aI0
asI11231
(lp549
I0
aI0
aI15032
aNaI0
aI0
aI0
aI0
aI0
aI0
aI0
aI0
aI100
aI0
aI0
aI-1
aI0
aI0
aI0
aI1
aI1
aI0
aI0
aI0
aI0
aI65
aI0
aI1
aI0
aI0
aI0
aI0
aI0
aI0
aI3
aI0
aI0
aI1
aI1
aI4
aI1
aI0
aI0
aI0
aI0
aI0
aI0
aI0
aI1
aI0
aVpir_t_gui_pot_healthRegeneration
p550
aI38
aI1
aI1
aI0
aI0
asI11232
(lp551
I0
aI0
aI15033
aNaI0
aI0
aI0
aI0
aI0
aI0
aI0
aI0
aI100
aI0
aI0
aI-1
aI0
aI0
aI0
aI1
aI1
aI0
aI0
aI0
aI0
aI66
aI0
aI1
aI0
aI0
aI0
aI0
aI0
aI0
aI3
aI0
aI0
aI1
aI1
aI4
aI1
aI0
aI0
aI0
aI0
aI0
aI0
aI0
aI1
aI0
aVpir_t_gui_pot_burp
p552
aI38
aI1
aI1
aI0
aI0
asI11233
(lp553
I0
aI0
aI15034
aNaI0
aI0
aI0
aI0
aI0
aI0
aI0
aI0
aI100
aI0
aI0
aI-1
aI0
aI0
aI0
aI1
aI1
aI0
aI0
aI0
aI0
aI67
aI0
aI1
aI0
aI0
aI0
aI0
aI0
aI0
aI3
aI0
aI0
aI1
aI1
aI4
aI1
aI0
aI0
aI0
aI0
aI0
aI0
aI0
aI1
aI0
aVpir_t_gui_pot_fart
p554
aI38
aI1
aI1
aI0
aI0
asI11234
(lp555
I0
aI0
aI15035
aNaI0
aI0
aI0
aI0
aI0
aI0
aI0
aI0
aI100
aI0
aI0
aI-1
aI0
aI0
aI0
aI1
aI1
aI0
aI0
aI0
aI0
aI68
aI0
aI1
aI0
aI0
aI0
aI0
aI0
aI0
aI3
aI0
aI0
aI1
aI1
aI4
aI1
aI0
aI0
aI0
aI0
aI0
aI0
aI0
aI1
aI0
aVpir_t_gui_pot_puke
p556
aI38
aI1
aI1
aI0
aI0
asI11235
(lp557
I0
aI0
aI15036
aNaI0
aI0
aI0
aI0
aI0
aI0
aI0
aI0
aI100
aI0
aI0
aI-1
aI0
aI0
aI0
aI1
aI1
aI0
aI0
aI0
aI0
aI69
aI0
aI1
aI0
aI0
aI0
aI0
aI0
aI0
aI3
aI0
aI0
aI1
aI1
aI4
aI1
aI0
aI0
aI0
aI0
aI0
aI0
aI0
aI1
aI0
aVpir_t_gui_pot_headIncrease
p558
aI38
aI1
aI1
aI0
aI0
asI11236
(lp559
I0
aI0
aI15037
aNaI0
aI0
aI0
aI0
aI0
aI0
aI0
aI0
aI100
aI0
aI0
aI-1
aI0
aI0
aI0
aI1
aI1
aI0
aI0
aI0
aI0
aI70
aI0
aI1
aI0
aI0
aI0
aI0
aI0
aI0
aI3
aI0
aI0
aI1
aI1
aI4
aI1
aI0
aI0
aI0
aI0
aI0
aI0
aI0
aI1
aI0
aVpir_t_gui_pot_faceColor
p560
aI38
aI1
aI1
aI0
aI0
asI11237
(lp561
I0
aI0
aI15038
aNaI0
aI0
aI0
aI0
aI0
aI0
aI0
aI0
aI100
aI0
aI0
aI-1
aI0
aI0
aI0
aI1
aI1
aI0
aI0
aI0
aI0
aI71
aI0
aI1
aI0
aI0
aI0
aI0
aI0
aI0
aI3
aI0
aI0
aI1
aI1
aI4
aI1
aI0
aI0
aI0
aI0
aI0
aI0
aI0
aI1
aI0
aVpir_t_gui_pot_avatarDecrease
p562
aI38
aI1
aI1
aI0
aI0
asI11238
(lp563
I0
aI0
aI15039
aNaI0
aI0
aI0
aI0
aI0
aI0
aI0
aI0
aI100
aI0
aI0
aI-1
aI0
aI0
aI0
aI1
aI1
aI0
aI0
aI0
aI0
aI72
aI0
aI1
aI0
aI0
aI0
aI0
aI0
aI0
aI3
aI0
aI0
aI1
aI1
aI4
aI1
aI0
aI0
aI0
aI0
aI0
aI0
aI0
aI1
aI0
aVpir_t_gui_pot_avatarIncrease
p564
aI38
aI1
aI1
aI0
aI0
asI11239
(lp565
I0
aI0
aI15040
aNaI0
aI0
aI0
aI0
aI0
aI0
aI0
aI0
aI100
aI0
aI0
aI-1
aI0
aI0
aI0
aI1
aI1
aI0
aI0
aI0
aI0
aI73
aI0
aI1
aI0
aI0
aI0
aI0
aI0
aI0
aI3
aI0
aI0
aI1
aI1
aI4
aI1
aI0
aI0
aI0
aI0
aI0
aI0
aI0
aI1
aI0
aVpir_t_gui_pot_headOnFire
p566
aI38
aI1
aI1
aI0
aI0
asI11240
(lp567
I0
aI0
aI15041
aNaI0
aI0
aI0
aI0
aI0
aI0
aI0
aI0
aI100
aI0
aI0
aI-1
aI0
aI0
aI0
aI1
aI1
aI0
aI0
aI0
aI0
aI74
aI0
aI1
aI0
aI0
aI0
aI0
aI0
aI0
aI3
aI0
aI0
aI1
aI1
aI4
aI1
aI0
aI0
aI0
aI0
aI0
aI0
aI0
aI1
aI0
aVpir_t_gui_pot_scorpionTransform
p568
aI38
aI1
aI1
aI0
aI0
asI11241
(lp569
I0
aI0
aI15042
aNaI0
aI0
aI0
aI0
aI0
aI0
aI0
aI0
aI100
aI0
aI0
aI-1
aI0
aI0
aI0
aI1
aI1
aI0
aI0
aI0
aI0
aI75
aI0
aI1
aI0
aI0
aI0
aI0
aI0
aI0
aI3
aI0
aI0
aI1
aI1
aI4
aI1
aI0
aI0
aI0
aI0
aI0
aI0
aI0
aI1
aI0
aVpir_t_gui_pot_alligatorTransform
p570
aI38
aI1
aI1
aI0
aI0
asI11242
(lp571
I0
aI0
aI15043
aNaI0
aI0
aI0
aI0
aI0
aI0
aI0
aI0
aI100
aI0
aI0
aI-1
aI0
aI0
aI0
aI1
aI1
aI0
aI0
aI0
aI0
aI76
aI0
aI1
aI0
aI0
aI0
aI0
aI0
aI0
aI3
aI0
aI0
aI1
aI1
aI4
aI1
aI0
aI0
aI0
aI0
aI0
aI0
aI0
aI1
aI0
aVpir_t_gui_pot_crabTransform
p572
aI38
aI1
aI1
aI0
aI0
asI11243
(lp573
I0
aI0
aI15044
aNaI0
aI0
aI0
aI0
aI0
aI0
aI0
aI0
aI100
aI0
aI0
aI-1
aI0
aI0
aI0
aI1
aI1
aI0
aI0
aI0
aI0
aI77
aI0
aI1
aI0
aI0
aI0
aI0
aI0
aI0
aI3
aI0
aI0
aI1
aI1
aI4
aI1
aI0
aI0
aI0
aI0
aI0
aI0
aI0
aI1
aI0
aVpir_t_gui_pot_targeted
p574
aI38
aI1
aI1
aI0
aI0
asI11244
(lp575
I0
aI0
aI15045
aNaI0
aI0
aI0
aI0
aI0
aI0
aI0
aI0
aI100
aI0
aI0
aI-1
aI0
aI0
aI0
aI1
aI1
aI0
aI0
aI0
aI0
aI78
aI0
aI1
aI0
aI0
aI0
aI0
aI0
aI0
aI3
aI0
aI0
aI1
aI1
aI4
aI1
aI0
aI0
aI0
aI0
aI0
aI0
aI0
aI1
aI0
aVpir_t_gui_pot_targeted
p576
aI38
aI1
aI1
aI0
aI0
asI11245
(lp577
I0
aI0
aI15046
aNaI0
aI0
aI0
aI0
aI0
aI0
aI0
aI0
aI100
aI0
aI0
aI-1
aI0
aI0
aI0
aI1
aI1
aI0
aI0
aI0
aI0
aI79
aI0
aI1
aI0
aI0
aI0
aI0
aI0
aI0
aI3
aI0
aI0
aI1
aI1
aI4
aI1
aI0
aI0
aI0
aI0
aI0
aI0
aI0
aI1
aI0
aVpir_t_gui_pot_targeted
p578
aI38
aI1
aI1
aI0
aI0
asI11246
(lp579
I0
aI0
aI15047
aNaI0
aI0
aI0
aI0
aI0
aI0
aI0
aI0
aI100
aI0
aI0
aI-1
aI0
aI0
aI0
aI1
aI1
aI0
aI0
aI0
aI0
aI80
aI0
aI1
aI0
aI0
aI0
aI0
aI0
aI0
aI3
aI0
aI0
aI1
aI1
aI4
aI1
aI0
aI0
aI0
aI0
aI0
aI0
aI0
aI1
aI0
aVpir_t_gui_pot_removeGroggy
p580
aI38
aI1
aI1
aI0
aI0
asI11247
(lp581
I0
aI0
aI15048
aNaI0
aI0
aI0
aI0
aI0
aI0
aI0
aI0
aI100
aI0
aI0
aI-1
aI0
aI0
aI0
aI1
aI1
aI0
aI0
aI0
aI0
aI84
aI0
aI1
aI0
aI0
aI0
aI0
aI0
aI0
aI3
aI0
aI0
aI1
aI1
aI4
aI1
aI0
aI0
aI0
aI0
aI0
aI0
aI0
aI1
aI0
aVpir_t_gui_pot_repBoost
p582
aI38
aI1
aI1
aI0
aI0
asI11248
(lp583
I0
aI0
aI15049
aNaI0
aI0
aI0
aI0
aI0
aI0
aI0
aI0
aI100
aI0
aI0
aI-1
aI0
aI0
aI0
aI1
aI1
aI0
aI0
aI0
aI0
aI85
aI0
aI1
aI0
aI0
aI0
aI0
aI0
aI0
aI3
aI0
aI0
aI1
aI1
aI4
aI1
aI0
aI0
aI0
aI0
aI0
aI0
aI0
aI1
aI0
aVpir_t_gui_pot_fart
p584
aI38
aI1
aI1
aI0
aI0
asI11251
(lp585
I0
aI0
aI15052
aNaI0
aI0
aI0
aI0
aI0
aI0
aI0
aI0
aI100
aI0
aI0
aI-1
aI0
aI0
aI0
aI1
aI1
aI0
aI0
aI0
aI0
aI88
aI0
aI1
aI0
aI0
aI0
aI0
aI0
aI0
aI3
aI0
aI0
aI1
aI1
aI4
aI1
aI0
aI0
aI0
aI0
aI0
aI0
aI0
aI1
aI0
aVpir_t_gui_pot_removeGroggy
p586
aI38
aI1
aI1
aI0
aI0
asI11252
(lp587
I0
aI0
aI15053
aNaI0
aI0
aI0
aI0
aI0
aI0
aI0
aI0
aI100
aI0
aI0
aI-1
aI0
aI0
aI0
aI1
aI1
aI0
aI0
aI0
aI0
aI89
aI0
aI1
aI0
aI0
aI0
aI0
aI0
aI0
aI3
aI0
aI0
aI1
aI1
aI4
aI1
aI0
aI0
aI0
aI0
aI0
aI0
aI0
aI1
aI0
aVpir_t_gui_pot_repBoost
p588
aI38
aI1
aI1
aI0
aI0
asI11253
(lp589
I0
aI0
aI15054
aNaI0
aI0
aI0
aI0
aI0
aI0
aI0
aI0
aI100
aI0
aI0
aI-1
aI0
aI0
aI0
aI1
aI1
aI0
aI0
aI0
aI0
aI90
aI0
aI1
aI0
aI0
aI0
aI0
aI0
aI0
aI3
aI0
aI0
aI1
aI1
aI4
aI1
aI0
aI0
aI0
aI0
aI0
aI0
aI0
aI1
aI0
aVpir_t_gui_pot_removeGroggy
p590
aI38
aI1
aI1
aI0
aI0
asI11254
(lp591
I0
aI0
aI15055
aNaI0
aI0
aI0
aI0
aI0
aI0
aI0
aI0
aI100
aI0
aI0
aI-1
aI0
aI0
aI0
aI1
aI1
aI0
aI0
aI0
aI0
aI91
aI0
aI1
aI0
aI0
aI0
aI0
aI0
aI0
aI3
aI0
aI0
aI1
aI1
aI4
aI1
aI0
aI0
aI0
aI0
aI0
aI0
aI0
aI1
aI0
aVpir_t_gui_pot_removeGroggy
p592
aI38
aI1
aI1
aI0
aI0
asI11255
(lp593
I0
aI0
aI15056
aNaI0
aI0
aI0
aI0
aI0
aI0
aI0
aI0
aI100
aI0
aI0
aI-1
aI0
aI0
aI0
aI1
aI1
aI0
aI0
aI0
aI0
aI92
aI0
aI1
aI0
aI0
aI0
aI0
aI0
aI0
aI3
aI0
aI0
aI1
aI1
aI4
aI1
aI0
aI0
aI0
aI0
aI0
aI0
aI0
aI1
aI0
aVpir_t_gui_pot_removeGroggy
p594
aI38
aI1
aI1
aI0
aI0
asI3100
(lp595
I13713
aI1
aNaNaI1
aI0
aI0
aI-30
aI-75
aI-30
aI0
aI0
aI100
aF0.25
aF0.5
aI6
aI25
aI0
aI0
aI0
aI1
aI0
aI1
aI0
aI0
aI26
aI0
aI0
aI0
aI0
aI0
aI1
aI3
aI0
aI-1
aI0
aF0.1
aI1
aI0
aI1
aI1
aI0
aI0
aI0
aI0
aI0
aI0
aI0
aI0
aI0
aVvoodoo_curse
p596
aI31
aI1
aI1
aI2
aI0
asI3101
(lp597
I13713
aI1
aNaNaI1
aI0
aI0
aI0
aI-10000
aI0
aI0
aI0
aI100
aF0.25
aF0.5
aI7
aI25
aI0
aI0
aI0
aI1
aI0
aI1
aI0
aI0
aI26
aI0
aI0
aI0
aI0
aI0
aI1
aI3
aI0
aI-1
aI0
aF0.1
aI1
aI0
aI1
aI1
aI0
aI0
aI0
aI0
aI0
aI0
aI0
aI0
aI0
aVvoodoo_curse
p598
aI10
aI1
aI100
aI2
aI0
asI3102
(lp599
I13703
aI0
aNaNaI0
aI0
aI0
aI0
aI0
aI0
aI0
aI0
aI100
aI0
aI180
aI200
aI0
aI0
aI1
aI0
aI0
aI0
aI0
aI0
aI0
aI201
aI0
aI0
aI0
aI0
aI0
aI0
aI0
aI0
aI-1
aI0
aI0
aI1
aI1
aI1
aI1
aI0
aI0
aI0
aI0
aI0
aI0
aI0
aI0
aI0
aVvoodoo_curse
p600
aI0
aI0
aI1
aI1
aI0
asI11300
(lp601
I0
aI0
aI11300
aNaI0
aI0
aI0
aI0
aI0
aI0
aI0
aI0
aI100
aI0
aI0
aI-1
aI0
aI0
aI0
aI1
aI1
aI0
aI0
aI0
aI0
aI0
aI0
aI1
aI0
aI0
aI0
aI0
aI0
aI0
aI3
aI0
aI0
aI1
aI1
aI4
aI1
aI0
aI0
aI0
aI0
aI0
aI0
aI0
aI1
aI0
aVpir_t_gui_fsh_stall
p602
aI38
aI1
aI1
aI0
aI0
asI11301
(lp603
I0
aI0
aI11301
aNaI0
aI0
aI0
aI0
aI0
aI0
aI0
aI0
aI100
aI0
aI0
aI-1
aI0
aI0
aI0
aI1
aI1
aI0
aI0
aI0
aI0
aI0
aI0
aI1
aI0
aI0
aI0
aI0
aI0
aI0
aI3
aI0
aI0
aI1
aI1
aI4
aI1
aI0
aI0
aI0
aI0
aI0
aI0
aI0
aI1
aI0
aVpir_t_gui_fsh_sink
p604
aI38
aI1
aI1
aI0
aI0
asI3200
(lp605
I13713
aI4
aNaNaI1
aI0
aI0
aI0
aI-75
aI0
aI0
aI0
aI100
aF0.25
aI0
aI0
aI7
aI0
aI0
aI0
aI1
aI0
aI1
aI1
aI1
aI156
aI0
aI0
aI0
aI0
aI0
aI1
aI3
aI0
aI-1
aI0
aF0.1
aI2
aI0
aI1
aI1
aI0
aI0
aI0
aI0
aI0
aI0
aI0
aI0
aI0
aVgrenade_explosion
p606
aI9
aI1
aI10
aI1
aI0
asI3300
(lp607
I13713
aI4
aNaNaI1
aI0
aI0
aI0
aI-1000
aI0
aI0
aI0
aI100
aF0.25
aI2
aI8
aI30
aI0
aI0
aI0
aI1
aI0
aI1
aI1
aI1
aI156
aI0
aI0
aI0
aI0
aI0
aI1
aI6
aI0
aI-1
aI0
aF0.4
aI2
aI0
aI1
aI1
aI0
aI0
aI0
aI0
aI0
aI0
aI0
aI0
aI0
aVgrenade_explosion
p608
aI42
aI1
aI50
aI1
aI0
asI3301
(lp609
I13713
aI4
aNaNaI1
aI0
aI0
aI0
aI-1000
aI0
aI0
aI0
aI100
aF0.25
aI2
aI8
aI30
aI0
aI0
aI0
aI1
aI0
aI1
aI1
aI1
aI156
aI0
aI0
aI0
aI0
aI0
aI1
aI6
aI0
aI-1
aI0
aF0.4
aI2
aI0
aI1
aI1
aI0
aI0
aI0
aI0
aI0
aI0
aI0
aI0
aI0
aVgrenade_explosion
p610
aI42
aI1
aI50
aI1
aI0
asI2260
(lp611
I13709
aI3
aNaNaI0
aI0
aI0
aI0
aI0
aI0
aI0
aI0
aI100
aI0
aI0
aI0
aI0
aI0
aI0
aI1
aI1
aI0
aI0
aI0
aI0
aI0
aI0
aI1
aI0
aI0
aI0
aI0
aI0
aI0
aI-1
aI0
aF0.1
aI1
aI0
aI1
aI1
aI0
aI0
aI0
aI0
aI0
aI0
aI0
aI1
aI1
aVvoodoo_hasten
p612
aI0
aI2
aI1
aF2.625
aI0
asI2261
(lp613
I13709
aI3
aNaNaI4
aI0
aI0
aI-8
aI-65
aI0
aI0
aI0
aI100
aF0.25
aI4
aI130
aI0
aI0
aI0
aI0
aI1
aI0
aI0
aI0
aI0
aI0
aI0
aI0
aI1
aI0
aI0
aI0
aI0
aI0
aI-1
aI0
aF0.6
aI1
aI0
aI2
aI1
aI0
aI0
aI0
aI0
aI0
aI0
aI0
aI1
aI1
aVvoodoo_poke
p614
aI20
aI2
aF0.5
aF2.08
aI0
asI3400
(lp615
I13712
aI0
aNaNaI4
aI0
aI0
aI0
aI0
aI0
aI0
aI0
aI100
aF0.25
aI60
aI-1
aI150
aI1
aI0
aI1
aI0
aI0
aI1
aI0
aI0
aI108
aI0
aI0
aI0
aI0
aI0
aI0
aI6
aI0
aI-1
aI0
aI0
aI1
aI0
aI2
aI1
aI0
aI0
aI0
aI0
aI0
aI0
aI1
aI0
aI0
aVsail_broadside_right
p616
aI0
aI1
aI1
aI0
aI0
asI3401
(lp617
I13712
aI0
aNaNaI4
aI0
aI0
aI0
aI0
aI0
aI0
aI0
aI100
aF0.25
aI60
aI-1
aI150
aI1
aI0
aI1
aI0
aI0
aI1
aI0
aI0
aI109
aI0
aI0
aI0
aI0
aI0
aI0
aI6
aI0
aI-1
aI0
aI0
aI1
aI0
aI2
aI1
aI0
aI0
aI0
aI0
aI0
aI0
aI1
aI0
aI0
aVcannon_chain_shot
p618
aI0
aI1
aI1
aI0
aI0
asI3402
(lp619
I13712
aI0
aNaNaI4
aI0
aI0
aI0
aI0
aI0
aI0
aI0
aI100
aF0.25
aI60
aI-1
aI150
aI1
aI0
aI1
aI0
aI0
aI1
aI0
aI0
aI110
aI0
aI0
aI0
aI0
aI0
aI0
aI6
aI0
aI-1
aI0
aI0
aI1
aI0
aI2
aI1
aI0
aI0
aI0
aI0
aI0
aI0
aI1
aI0
aI0
aVgrenade_explosion
p620
aI0
aI1
aI1
aI0
aI0
asI3403
(lp621
I13712
aI0
aNaNaI4
aI0
aI0
aI0
aI0
aI0
aI0
aI0
aI100
aF0.25
aI45
aI-1
aI0
aI0
aI0
aI1
aI0
aI0
aI0
aI0
aI0
aI111
aI0
aI0
aI0
aI0
aI0
aI0
aI10
aI0
aI-1
aI0
aI0
aI1
aI0
aI2
aI1
aI0
aI0
aI0
aI0
aI0
aI0
aI1
aI0
aI0
aVgrenade_demolition
p622
aI0
aI1
aI1
aI0
aI0
asI3404
(lp623
I13712
aI0
aNaNaI4
aI0
aI0
aI0
aI0
aI0
aI0
aI0
aI100
aF0.25
aI45
aI-1
aI0
aI0
aI0
aI1
aI0
aI0
aI0
aI0
aI0
aI112
aI0
aI0
aI0
aI0
aI0
aI0
aI15
aI0
aI-1
aI0
aI0
aI1
aI0
aI2
aI1
aI0
aI0
aI0
aI0
aI0
aI0
aI1
aI0
aI0
aVsail_tacking
p624
aI0
aI1
aI1
aI0
aI0
asI3500
(lp625
I0
aI0
aNaNaI0
aI0
aI0
aI-50
aI0
aI0
aI0
aI0
aI100
aF0.25
aI30
aI0
aI0
aI0
aI1
aI0
aI0
aI0
aI0
aI0
aI0
aI15
aI0
aI0
aI0
aI0
aI0
aI0
aI0
aI0
aI-1
aI0
aI0
aI1
aI1
aI1
aI1
aI0
aI0
aI0
aI0
aI0
aI0
aI0
aI0
aI0
aVstaff_conservation
p626
aI43
aI2
aI1
aF2.625
aI0
asI3501
(lp627
I0
aI0
aNaNaI0
aI0
aI0
aI0
aI0
aI0
aI0
aI0
aI100
aF0.25
aI30
aI0
aI0
aI0
aI1
aI0
aI0
aI0
aI0
aI0
aI0
aI158
aI0
aI0
aI0
aI0
aI0
aI0
aI20
aI0
aI-1
aI0
aI0
aI1
aI1
aI5
aI1
aI0
aI0
aI0
aI0
aI0
aI0
aI0
aI0
aI0
aVvoodoo_free
p628
aI0
aI2
aI1
aF2.625
aI0
asI3502
(lp629
I0
aI0
aNaNaI0
aI0
aI0
aI0
aI0
aI0
aI0
aI0
aI100
aF0.25
aI30
aI0
aI0
aI0
aI0
aI0
aI0
aI0
aI0
aI0
aI0
aI0
aI0
aI0
aI0
aI0
aI0
aI0
aI0
aI0
aI-1
aI0
aI0
aI1
aI1
aI6
aI1
aI0
aI0
aI0
aI0
aI0
aI0
aI0
aI0
aI0
aVcutlass_parry
p630
aI0
aI2
aI1
aF2.625
aI0
asI3503
(lp631
I0
aI0
aNaNaI0
aI0
aI0
aI0
aI0
aI0
aI0
aI0
aI100
aF0.25
aI30
aI0
aI0
aI0
aI0
aI0
aI0
aI0
aI0
aI0
aI0
aI0
aI0
aI0
aI0
aI0
aI0
aI0
aI0
aI0
aI-1
aI0
aI0
aI1
aI1
aI6
aI1
aI0
aI0
aI0
aI0
aI0
aI0
aI0
aI0
aI0
aVstaff_concentration
p632
aI0
aI2
aI1
aF2.625
aI0
asI3504
(lp633
I0
aI0
aNaNaI0
aI0
aI0
aI0
aI400
aI0
aI0
aI0
aI100
aF0.25
aI20
aI0
aI20
aI0
aI0
aI1
aI0
aI0
aI1
aI0
aI0
aI0
aI0
aI0
aI0
aI0
aI0
aI0
aI20
aI0
aI-1
aI0
aI0
aI1
aI1
aI5
aI1
aI0
aI0
aI0
aI0
aI0
aI0
aI0
aI0
aI0
aVgrenade_determination2
p634
aI0
aI2
aI1
aF2.625
aI0
asI3505
(lp635
I0
aI0
aNaNaI0
aI0
aI0
aI0
aI0
aI0
aI0
aI0
aI100
aF0.25
aI30
aI12
aI0
aI0
aI0
aI0
aI1
aI0
aI0
aI0
aI0
aI160
aI0
aI0
aI1
aI0
aI0
aI1
aI30
aI0
aI-1
aI0
aF0.5
aI1
aI0
aI2
aI0
aI0
aI0
aI0
aI0
aI0
aI0
aI0
aI1
aI0
aVsail_openfire2
p636
aI0
aI1
aI1
aF0.8
aI0
asI3506
(lp637
I0
aI0
aNaNaI0
aI0
aI0
aI-50
aI0
aI0
aI0
aI0
aI100
aF0.25
aI30
aI0
aI0
aI0
aI1
aI0
aI0
aI0
aI0
aI0
aI0
aI165
aI0
aI0
aI0
aI0
aI0
aI0
aI10
aI0
aI-1
aI0
aI0
aI1
aI1
aI5
aI1
aI0
aI0
aI0
aI0
aI0
aI0
aI0
aI0
aI0
aVstaff_focus
p638
aI0
aI2
aI1
aI1
aI0
asI3507
(lp639
I0
aI0
aNaNaI0
aI0
aI0
aI0
aI0
aI0
aI0
aI0
aI100
aF0.25
aI0
aI0
aI0
aI0
aI0
aI0
aI0
aI0
aI0
aI0
aI0
aI0
aI0
aI0
aI0
aI0
aI0
aI0
aI10
aI0
aI-1
aI0
aI0
aI1
aI1
aI6
aI1
aI0
aI0
aI0
aI0
aI0
aI0
aI0
aI0
aI0
aVstaff_focus
p640
aI0
aI2
aI1
aI1
aI0
asI3508
(lp641
I0
aI0
aNaNaI0
aI0
aI0
aI0
aI300
aI0
aI0
aI0
aI100
aF0.25
aI30
aI-1
aI0
aI0
aI1
aI0
aI1
aI0
aI0
aI0
aI0
aI161
aI0
aI0
aI0
aI0
aI0
aI0
aI20
aI0
aI-1
aI0
aI0
aI1
aI1
aI5
aI1
aI0
aI0
aI0
aI0
aI0
aI0
aI0
aI0
aI0
aVgrenade_toughness
p642
aI45
aI2
aI1
aF0.625
aI0
asI3509
(lp643
I0
aI0
aNaNaI0
aI0
aI250
aI50
aI0
aI0
aI0
aI0
aI100
aF0.25
aI30
aI0
aI0
aI0
aI1
aI0
aI0
aI0
aI0
aI0
aI0
aI0
aI0
aI0
aI0
aI0
aI0
aI0
aI0
aI0
aI-1
aI0
aI0
aI1
aI1
aI1
aI1
aI0
aI0
aI0
aI0
aI0
aI0
aI0
aI1
aI0
aVvoodoo_cure
p644
aI38
aI2
aI1
aF2.625
aI0
asI3510
(lp645
I0
aI0
aNaNaI0
aI0
aI0
aI0
aI0
aI0
aI0
aI0
aI100
aF0.25
aI30
aI0
aI0
aI0
aI1
aI0
aI0
aI0
aI0
aI0
aI0
aI168
aI0
aI0
aI0
aI0
aI0
aI0
aI12
aI0
aI-1
aI0
aI0
aI1
aI1
aI2
aI1
aI0
aI0
aI0
aI0
aI0
aI0
aI0
aI0
aI0
aVvoodoo_life_drain
p646
aI0
aI2
aI1
aF2.625
aI0
asI3600
(lp647
I0
aI4
aNaNaI1
aI0
aI0
aI0
aI-1000
aI0
aI0
aI0
aI100
aF0.25
aI2
aI8
aI30
aI0
aI0
aI0
aI1
aI0
aI1
aI1
aI1
aI156
aI0
aI0
aI0
aI0
aI0
aI1
aI6
aI0
aI-1
aI0
aF0.4
aI2
aI0
aI1
aI1
aI0
aI0
aI0
aI0
aI0
aI0
aI0
aI0
aI0
aVgrenade_explosion
p648
aI42
aI1
aI50
aI1
aI0
asI3601
(lp649
I0
aI1
aNaNaI1
aI0
aI0
aI0
aI-5
aI0
aI0
aI0
aI80
aF0.25
aI1
aI6
aI0
aI0
aI0
aI0
aI1
aI0
aI0
aI0
aI0
aI0
aI0
aI0
aI1
aI0
aI0
aI1
aI0
aI0
aI-1
aI0
aF0.1
aI1
aI0
aI1
aI1
aI0
aI0
aI0
aI0
aI0
aI0
aI0
aI1
aI1
aVcutlass_stab
p650
aI0
aI1
aI1
aI1
aI0
asI3602
(lp651
I0
aI1
aNaNaI1
aI0
aI0
aI0
aI-12
aI0
aI0
aI0
aI100
aF0.25
aF0.5
aI6
aI0
aI0
aI0
aI0
aI1
aI0
aI0
aI0
aI0
aI3
aI0
aI0
aI1
aI0
aI0
aI1
aI3
aI0
aI-1
aI0
aF0.22
aI1
aI0
aI1
aI1
aI0
aI0
aI0
aI0
aI0
aI0
aI0
aI1
aI1
aVcutlass_stab
p652
aI1
aI1
aF0.75
aF0.625
aI0
asI3701
(lp653
I13703
aI1
aNaNaI4
aI0
aI0
aI-80
aI-150
aI0
aI0
aI0
aI100
aF0.25
aI60
aI6
aI15
aI0
aI0
aI0
aI1
aI0
aI1
aI0
aI0
aI163
aI0
aI0
aI1
aI0
aI0
aI1
aI10
aI2
aI-1
aI0
aF0.6
aI1
aI0
aI5
aI0
aI0
aI0
aI0
aI0
aI0
aI0
aI0
aI1
aI1
aVpir_t_gui_amo_can_firestorm
p654
aI9
aI1
aF1.25
aF1.42
aI0
asI3702
(lp655
I13703
aI1
aNaNaI4
aI0
aI0
aI-120
aI-150
aI0
aI0
aI0
aI100
aF0.25
aI60
aI6
aI15
aI0
aI0
aI0
aI1
aI0
aI1
aI0
aI0
aI164
aI0
aI0
aI1
aI0
aI0
aI1
aI3
aI0
aI-1
aI0
aF0.6
aI1
aI0
aI5
aI0
aI0
aI0
aI0
aI0
aI0
aI0
aI0
aI1
aI1
aVdagger_blade_instinct
p656
aI31
aI1
aF1.25
aF1.42
aI0
asI3703
(lp657
I13703
aI1
aNaNaI4
aI0
aI0
aI-160
aI-300
aI0
aI0
aI0
aI100
aF0.25
aI60
aI6
aI15
aI0
aI0
aI0
aI1
aI0
aI1
aI0
aI0
aI26
aI0
aI0
aI1
aI0
aI0
aI1
aI3
aI0
aI-1
aI0
aF0.6
aI1
aI0
aI5
aI0
aI0
aI0
aI0
aI0
aI0
aI0
aI0
aI1
aI1
aVstaff_lightning
p658
aI44
aI1
aF1.25
aF1.42
aI0
asI3008
(lp659
I13713
aI3
aNaNaI1
aI0
aI0
aI0
aI-400
aI0
aI0
aI0
aI100
aF0.25
aI5
aI200
aI0
aI0
aI0
aI0
aI1
aI0
aI0
aI1
aI1
aI2
aI0
aI0
aI1
aI0
aI0
aI1
aI20
aI2
aI-1
aI0
aF0.4
aI2
aI1
aI1
aI1
aI0
aI0
aI0
aI0
aI0
aI0
aI0
aI0
aI0
aVstaff_lightning
p660
aI41
aI1
aI4
aI1
aI0
asI2330
(lp661
I13703
aI1
aNaNaI2
aI0
aI0
aI0
aI-60
aI0
aI0
aI0
aI95
aF0.25
aI3
aI6
aI0
aI0
aI0
aI0
aI1
aI0
aI0
aI0
aI0
aI10
aI0
aI0
aI1
aI0
aI0
aI1
aI0
aI0
aI-1
aI0
aF0.22
aI1
aI0
aI2
aI1
aI0
aI0
aI0
aI0
aI0
aI0
aI0
aI0
aI0
aVcutlass_cleave
p662
aI6
aI1
aF1.5
aI1
aI0
asI2331
(lp663
I13703
aI1
aNaNaI2
aI0
aI0
aI0
aI-80
aI0
aI0
aI0
aI80
aF0.25
aI30
aI12
aI0
aI0
aI0
aI0
aI1
aI0
aI3
aI0
aI0
aI4
aI0
aI0
aI1
aI0
aI0
aI1
aI10
aI2
aI-1
aI0
aF0.22
aI1
aI0
aI5
aI0
aI0
aI0
aI0
aI0
aI0
aI0
aI0
aI0
aI0
aVcutlass_finesse
p664
aI10
aI1
aF1.5
aI1
aI0
asI2332
(lp665
I13703
aI1
aNaNaI2
aI0
aI0
aI0
aI-60
aI0
aI0
aI0
aI90
aF0.25
aI3
aI6
aI0
aI0
aI0
aI0
aI1
aI0
aI0
aI0
aI0
aI33
aI0
aI0
aI1
aI0
aI0
aI0
aI0
aI0
aI-1
aI0
aF0.22
aI1
aI0
aI2
aI1
aI0
aI0
aI0
aI0
aI0
aI0
aI0
aI0
aI0
aVcutlass_cleave
p666
aI1
aI1
aF1.5
aI1
aI0
asI2333
(lp667
I13703
aI1
aNaNaI1
aI0
aI0
aI-40
aI-50
aI0
aI0
aI0
aI100
aF0.25
aI15
aI6
aI0
aI0
aI0
aI0
aI1
aI0
aI0
aI0
aI0
aI163
aI0
aI0
aI1
aI0
aI0
aI1
aI5
aI2
aI-1
aI0
aF0.22
aI1
aI0
aI1
aI0
aI0
aI0
aI0
aI0
aI0
aI0
aI0
aI1
aI1
aVcannon_flaming_skull
p668
aI9
aI1
aF0.75
aF0.625
aI0
asI12000
(lp669
I13702
aI1
aNaNaI1
aI0
aI0
aI0
aI-5
aI0
aI0
aI0
aI80
aF0.25
aI1
aI6
aI0
aI0
aI0
aI0
aI1
aI0
aI0
aI0
aI0
aI0
aI0
aI0
aI1
aI0
aI0
aI1
aI0
aI0
aI-1
aI0
aF0.1
aI1
aI0
aI1
aI1
aI0
aI0
aI0
aI0
aI0
aI0
aI0
aI1
aI1
aVcutlass_stab
p670
aI0
aI1
aI1
aI1
aI0
asI12100
(lp671
I13703
aI1
aNaNaI1
aI0
aI0
aI0
aI-12
aI0
aI0
aI0
aI100
aF0.25
aF0.5
aI6
aI0
aI0
aI0
aI0
aI1
aI0
aI0
aI0
aI0
aI26
aI0
aI0
aI1
aI0
aI0
aI1
aI3
aI0
aI-1
aI0
aF0.22
aI1
aI0
aI1
aI1
aI0
aI0
aI0
aI0
aI0
aI0
aI0
aI1
aI1
aVcutlass_hack
p672
aI1
aI1
aF0.75
aF0.625
aI0
asI12101
(lp673
I13703
aI1
aNaNaI2
aI0
aI0
aI0
aI-33
aI0
aI0
aI0
aI100
aF0.25
aF0.5
aI6
aI0
aI0
aI0
aI0
aI1
aI0
aI0
aI0
aI0
aI26
aI0
aI0
aI1
aI0
aI0
aI1
aI3
aI0
aI-1
aI0
aF0.46
aI1
aI0
aI1
aI1
aI0
aI0
aI0
aI0
aI0
aI0
aI0
aI1
aI1
aVcutlass_slash
p674
aI2
aI1
aI1
aF0.75
aI0
asI12102
(lp675
I13703
aI1
aNaNaI2
aI0
aI0
aI0
aI-45
aI0
aI0
aI0
aI100
aF0.25
aF0.5
aI6
aI0
aI0
aI0
aI0
aI1
aI0
aI0
aI0
aI0
aI26
aI0
aI0
aI1
aI0
aI0
aI1
aI3
aI0
aI-1
aI0
aF0.7
aI1
aI0
aI1
aI1
aI0
aI0
aI0
aI0
aI0
aI0
aI0
aI1
aI1
aVcutlass_cleave
p676
aI5
aI1
aF1.25
aF1.125
aI0
asI12103
(lp677
I13703
aI1
aNaNaI4
aI0
aI0
aI0
aI-80
aI0
aI0
aI0
aI100
aF0.25
aF0.5
aI6
aI0
aI0
aI0
aI0
aI1
aI0
aI0
aI0
aI0
aI26
aI0
aI0
aI1
aI0
aI0
aI1
aI3
aI0
aI-1
aI0
aF0.6
aI3
aI0
aI1
aI1
aI0
aI0
aI0
aI0
aI0
aI0
aI0
aI0
aI0
aVcutlass_flourish
p678
aI4
aI1
aF1.5
aF1.58
aI0
asI12104
(lp679
I13703
aI1
aNaNaI6
aI0
aI0
aI0
aI-110
aI0
aI0
aI0
aI100
aF0.25
aF0.5
aI6
aI0
aI0
aI0
aI0
aI1
aI0
aI0
aI0
aI0
aI26
aI0
aI0
aI1
aI0
aI0
aI1
aI3
aI0
aI-1
aI0
aI1
aI1
aI0
aI1
aI1
aI0
aI0
aI0
aI0
aI0
aI0
aI0
aI0
aI0
aVcutlass_stab
p680
aI3
aI1
aF1.75
aF1.3
aI0
asI12105
(lp681
I13703
aI0
aNaNaI0
aI0
aI0
aI0
aI0
aI0
aI0
aI0
aI0
aF0.02
aI0
aI0
aI0
aI0
aI0
aI0
aI0
aI0
aI0
aI0
aI0
aI0
aI0
aI0
aI0
aI0
aI0
aI0
aI0
aI0
aI-1
aI0
aI0
aI0
aI0
aI3
aI0
aI0
aI0
aI0
aI0
aI0
aI0
aI0
aI1
aI1
aVcutlass_parry
p682
aI0
aI0
aI1
aI0
aI0
asI12106
(lp683
I13703
aI0
aNaNaI0
aI0
aI0
aI0
aI0
aI0
aI0
aI0
aI0
aF0.04
aI0
aI0
aI0
aI0
aI0
aI0
aI0
aI0
aI0
aI0
aI0
aI0
aI0
aI0
aI0
aI0
aI0
aI0
aI0
aI0
aI-1
aI0
aI0
aI0
aI0
aI3
aI0
aI0
aI0
aI0
aI0
aI0
aI0
aI0
aI0
aI0
aVgrenade_toughness
p684
aI0
aI0
aI1
aI0
aI0
asI12107
(lp685
I13703
aI1
aNaNaI2
aI0
aI0
aI0
aI-60
aI0
aI0
aI0
aI100
aF0.25
aI15
aI6
aI15
aI0
aI0
aI0
aI1
aI0
aI1
aI0
aI0
aI0
aI0
aI0
aI1
aI0
aI0
aI0
aI0
aI0
aI-1
aI0
aF0.6
aI1
aI0
aI2
aI0
aI0
aI0
aI0
aI0
aI0
aI0
aI0
aI1
aI1
aVcutlass_sweep
p686
aI29
aI1
aF1.25
aF1.42
aI0
asI12108
(lp687
I13703
aI1
aNaNaI5
aI0
aI0
aI0
aI-25
aI0
aI0
aI0
aI100
aF0.25
aI60
aI6
aI0
aI0
aI0
aI0
aI1
aI0
aI0
aI0
aI0
aI6
aI0
aI0
aI1
aI0
aI0
aI1
aF2.5
aI0
aI-1
aI0
aF0.5
aI1
aI0
aI2
aI0
aI0
aI0
aI0
aI0
aI0
aI0
aI0
aI0
aI0
aVcutlass_brawl
p688
aI6
aI1
aF0.75
aF1.41
aI0
asI12109
(lp689
I13703
aI1
aNaNaI8
aI0
aI0
aI0
aI0
aI0
aI0
aI0
aI100
aF0.25
aI30
aI12
aI0
aI0
aI0
aI0
aI1
aI0
aI0
aI0
aI0
aI10
aI0
aI0
aI1
aI0
aI0
aI1
aI30
aI0
aI-1
aI0
aF0.5
aI1
aI0
aI2
aI0
aI0
aI0
aI0
aI0
aI0
aI0
aI0
aI0
aI0
aVcutlass_taunt
p690
aI15
aI1
aI1
aF1.625
aI0
asI12110
(lp691
I13703
aI1
aNaNaI10
aI0
aI0
aI0
aI-200
aI0
aI0
aI0
aI100
aF0.25
aI30
aI6
aI0
aI0
aI0
aI0
aI1
aI0
aI0
aI0
aI0
aI0
aI0
aI0
aI1
aI0
aI0
aI0
aI0
aI0
aI-1
aI0
aF0.1
aI5
aI0
aI2
aI0
aI0
aI0
aI0
aI0
aI0
aI0
aI0
aI0
aI0
aVcutlass_bladestorm
p692
aI7
aI1
aI5
aF4.16
aI0
asI2360
(lp693
I13703
aI1
aNaI12100
aI1
aI0
aI0
aI0
aI-9
aI0
aI0
aI0
aI100
aF0.25
aF0.5
aI6
aI0
aI0
aI0
aI0
aI1
aI0
aI0
aI0
aI0
aI26
aI0
aI0
aI1
aI0
aI0
aI1
aI3
aI0
aI-1
aI0
aF0.19
aI1
aI0
aI1
aI1
aI0
aI0
aI0
aI0
aI0
aI0
aI0
aI1
aI1
aVcutlass_hack
p694
aI55
aI1
aF0.5
aF0.225
aI0
asI2361
(lp695
I13703
aI1
aNaI12101
aI2
aI0
aI0
aI0
aI-24
aI0
aI0
aI0
aI100
aF0.25
aF0.5
aI6
aI0
aI0
aI0
aI0
aI1
aI0
aI0
aI0
aI0
aI26
aI0
aI0
aI1
aI0
aI0
aI1
aI3
aI0
aI-1
aI0
aF0.12
aI1
aI0
aI1
aI1
aI0
aI0
aI0
aI0
aI0
aI0
aI0
aI1
aI1
aVcutlass_slash
p696
aI56
aI1
aF1.025
aF0.2
aI0
asI2362
(lp697
I13703
aI1
aNaI12102
aI2
aI0
aI0
aI0
aI-34
aI0
aI0
aI0
aI100
aF0.25
aF0.5
aI6
aI0
aI0
aI0
aI0
aI1
aI0
aI0
aI0
aI0
aI26
aI0
aI0
aI1
aI0
aI0
aI1
aI3
aI0
aI-1
aI0
aF0.7
aI3
aI0
aI1
aI1
aI0
aI0
aI0
aI0
aI0
aI0
aI0
aI1
aI1
aVcutlass_cleave
p698
aI57
aI1
aF0.875
aF0.475
aI0
asI2363
(lp699
I13703
aI1
aNaI12103
aI4
aI0
aI0
aI0
aI-60
aI0
aI0
aI0
aI100
aF0.25
aF0.5
aI6
aI0
aI0
aI0
aI0
aI1
aI0
aI0
aI0
aI0
aI26
aI0
aI0
aI1
aI0
aI0
aI1
aI3
aI0
aI-1
aI0
aF0.6
aI3
aI0
aI1
aI1
aI0
aI0
aI0
aI0
aI0
aI0
aI0
aI0
aI0
aVcutlass_flourish
p700
aI58
aI1
aF0.6
aF0.65
aI0
asI12604
(lp701
I13709
aI3
aNaNaI15
aI0
aI0
aI-30
aI0
aI0
aI0
aI0
aI100
aF0.25
aI30
aI130
aI0
aI0
aI0
aI0
aI1
aI0
aI0
aI0
aI0
aI12
aI0
aI0
aI1
aI0
aI0
aI1
aI60
aI0
aI-1
aI0
aF0.1
aI1
aI0
aI2
aI1
aI0
aI0
aI0
aI0
aI0
aI0
aI0
aI0
aI0
aVvoodoo_curse
p702
aI26
aI2
aI1
aF2.625
aI0
asI2370
(lp703
I0
aI0
aNaNaI0
aI0
aI0
aI0
aI0
aI0
aI0
aI0
aI100
aF0.25
aI0
aI0
aI0
aI0
aI1
aI0
aI0
aI0
aI0
aI0
aI0
aI0
aI0
aI0
aI0
aI0
aI0
aI0
aI0
aI0
aI-1
aI0
aI0
aI1
aI1
aI1
aI1
aI0
aI0
aI0
aI0
aI0
aI0
aI0
aI0
aI0
aVstaff_blast
p704
aI45
aI2
aI1
aF2.625
aI0
asI12200
(lp705
I13704
aI2
aNaNaI2
aI0
aI0
aI0
aI-15
aI0
aI0
aI0
aI80
aF0.25
aF0.5
aI70
aI0
aI0
aI0
aI0
aI1
aI0
aI0
aI0
aI0
aI0
aI0
aI0
aI1
aI0
aI1
aI0
aI0
aI0
aI-1
aI0
aF0.1
aI1
aI0
aI1
aI1
aI0
aI0
aI0
aI0
aI0
aI0
aI0
aI1
aI1
aVpistol_shoot
p706
aI0
aI0
aI1
aF0.55
aI0
asI12201
(lp707
I13704
aI2
aNaNaI1
aI0
aI0
aI0
aI-20
aI0
aI0
aI0
aI80
aF0.25
aI0
aI0
aI0
aI0
aI0
aI0
aI1
aI0
aI0
aI0
aI0
aI0
aI0
aI0
aI1
aI0
aI1
aI0
aI0
aI0
aI-1
aI0
aI0
aI1
aI1
aI2
aI1
aI0
aI0
aI0
aI0
aI0
aI0
aI0
aI1
aI1
aVlead
p708
aI0
aI0
aI1
aI0
aI0
asI12202
(lp709
I13704
aI2
aI13901
aNaI2
aI0
aI0
aI0
aI-25
aI0
aI0
aI0
aI80
aF0.25
aI0
aI0
aI0
aI0
aI0
aI0
aI1
aI0
aI0
aI0
aI0
aI5
aI0
aI0
aI1
aI0
aI1
aI1
aI10
aI2
aI50
aI0
aI0
aI1
aI1
aI2
aI1
aI0
aI0
aI0
aI0
aI0
aI0
aI0
aI1
aI1
aVvenom
p710
aI8
aI0
aI1
aI0
aI0
asI12203
(lp711
I13704
aI2
aI13902
aNaI2
aI0
aI0
aI0
aI-35
aI0
aI0
aI0
aI80
aF0.25
aI0
aI0
aI0
aI0
aI0
aI0
aI1
aI0
aI0
aI0
aI0
aI14
aI0
aI0
aI1
aI0
aI1
aI1
aI4
aI0
aI50
aI0
aI0
aI1
aI1
aI2
aI1
aI0
aI0
aI0
aI0
aI0
aI0
aI0
aI1
aI1
aVsteel
p712
aI0
aI0
aI1
aI0
aI0
asI12204
(lp713
I13704
aI2
aI13903
aNaI2
aI0
aI0
aI0
aI-20
aI-35
aI0
aI0
aI80
aF0.25
aI0
aI0
aI0
aI0
aI0
aI0
aI1
aI0
aI0
aI0
aI0
aI0
aI0
aI0
aI1
aI0
aI1
aI0
aI0
aI0
aI50
aI0
aI0
aI1
aI1
aI2
aI1
aI0
aI0
aI0
aI0
aI0
aI0
aI0
aI0
aI0
aVgold
p714
aI0
aI0
aI1
aI0
aI0
asI12205
(lp715
I13704
aI2
aI13904
aNaI3
aI0
aI0
aI0
aI-50
aI0
aI0
aI0
aI80
aF0.25
aI0
aI0
aI0
aI0
aI0
aI0
aI1
aI0
aI0
aI0
aI0
aI16
aI0
aI0
aI1
aI0
aI1
aI0
aI0
aI0
aI50
aI0
aI0
aI1
aI1
aI2
aI1
aI0
aI0
aI0
aI0
aI0
aI0
aI0
aI0
aI0
aVsilver
p716
aI0
aI0
aI1
aI0
aI0
asI12206
(lp717
I13704
aI2
aI13905
aNaI3
aI0
aI0
aI0
aI-55
aI0
aI0
aI0
aI80
aF0.25
aI0
aI0
aI0
aI0
aI0
aI0
aI1
aI0
aI0
aI0
aI0
aI17
aI0
aI0
aI1
aI0
aI1
aI0
aI0
aI0
aI50
aI0
aI0
aI1
aI1
aI2
aI1
aI0
aI0
aI0
aI0
aI0
aI0
aI0
aI0
aI0
aViron
p718
aI0
aI0
aI1
aI0
aI0
asI12207
(lp719
I13704
aI0
aNaNaI0
aI0
aI0
aI0
aI0
aI0
aI0
aI0
aI0
aF0.05
aI0
aI0
aI0
aI0
aI0
aI0
aI0
aI0
aI0
aI0
aI0
aI0
aI0
aI0
aI0
aI0
aI0
aI0
aI0
aI0
aI-1
aI0
aI0
aI0
aI0
aI3
aI0
aI0
aI0
aI0
aI0
aI0
aI0
aI0
aI0
aI0
aVpistol_sharp_shooter
p720
aI0
aI0
aI1
aI0
aI0
asI12208
(lp721
I13704
aI0
aNaNaI0
aI0
aI0
aI0
aI0
aI0
aI0
aI0
aI0
aF0.02
aI0
aI0
aI0
aI0
aI0
aI0
aI0
aI0
aI0
aI0
aI0
aI0
aI0
aI0
aI0
aI0
aI0
aI0
aI0
aI0
aI-1
aI0
aI0
aI0
aI0
aI3
aI0
aI0
aI0
aI0
aI0
aI0
aI0
aI0
aI0
aI0
aVdagger_dodge
p722
aI0
aI0
aI1
aI0
aI0
asI12209
(lp723
I13704
aI0
aNaNaI0
aI0
aI0
aI0
aI0
aI0
aI0
aI0
aI0
aF0.04
aI0
aI0
aI0
aI0
aI0
aI0
aI0
aI0
aI0
aI0
aI0
aI0
aI0
aI0
aI0
aI0
aI0
aI0
aI0
aI0
aI-1
aI0
aI0
aI0
aI0
aI3
aI0
aI0
aI0
aI0
aI0
aI0
aI0
aI0
aI0
aI0
aVpistol_eagle_eye
p724
aI0
aI0
aI1
aI0
aI0
asI12210
(lp725
I13704
aI2
aNaNaI5
aI0
aI0
aI0
aI-15
aI0
aI0
aI0
aI110
aF0.25
aI1
aI100
aI0
aI0
aI0
aI0
aI1
aI0
aI0
aI0
aI0
aI7
aI0
aI0
aI1
aI0
aI1
aI1
aI3
aI0
aI-1
aI2
aF0.1
aI1
aI0
aI1
aI1
aI0
aI0
aI0
aI0
aI0
aI0
aI0
aI1
aI1
aVpistol_take_aim
p726
aI0
aI0
aI1
aF0.55
aI0
asI2000
(lp727
I13713
aI1
aNaNaI1
aI0
aI0
aI0
aI0
aI0
aI0
aI0
aI90
aF0.25
aI2
aI6
aI0
aI0
aI0
aI0
aI1
aI0
aI0
aI0
aI0
aI26
aI0
aI0
aI1
aI0
aI1
aI1
aI3
aI0
aI-1
aI0
aF0.1
aI1
aI0
aI1
aI1
aI0
aI0
aI0
aI0
aI0
aI0
aI0
aI0
aI0
aVcutlass_stab
p728
aI0
aI1
aI1
aI0
aI0
asI2001
(lp729
I13713
aI1
aNaNaI1
aI0
aI0
aI0
aI0
aI0
aI0
aI0
aI90
aF0.25
aI2
aI6
aI0
aI0
aI0
aI0
aI1
aI0
aI0
aI0
aI0
aI26
aI0
aI0
aI1
aI0
aI1
aI1
aI3
aI0
aI-1
aI0
aF0.1
aI1
aI0
aI1
aI1
aI0
aI0
aI0
aI0
aI0
aI0
aI0
aI0
aI0
aVcutlass_stab
p730
aI0
aI1
aI1
aI0
aI0
asI2002
(lp731
I13713
aI1
aNaNaI1
aI0
aI0
aI0
aI0
aI0
aI0
aI0
aI90
aF0.25
aI2
aI6
aI0
aI0
aI0
aI0
aI1
aI0
aI0
aI0
aI0
aI26
aI0
aI0
aI1
aI0
aI1
aI1
aI3
aI0
aI-1
aI0
aF0.1
aI2
aI0
aI1
aI1
aI0
aI0
aI0
aI0
aI0
aI0
aI0
aI0
aI0
aVcutlass_stab
p732
aI2
aI1
aI2
aI0
aI0
asI2020
(lp733
I13713
aI3
aNaNaI1
aI0
aI0
aI0
aI0
aI0
aI0
aI0
aI70
aF0.25
aI5
aI150
aI0
aI0
aI0
aI0
aI1
aI0
aI0
aI0
aI0
aI21
aI0
aI0
aI1
aI0
aI0
aI1
aI20
aI2
aI-1
aI0
aF0.1
aI1
aI0
aI1
aI1
aI0
aI0
aI0
aI0
aI0
aI0
aI0
aI0
aI0
aVcutlass_stab
p734
aI8
aI1
aI1
aI0
aI0
asI2021
(lp735
I13713
aI1
aNaNaI1
aI0
aI0
aI0
aI0
aI0
aI0
aI0
aI70
aF0.25
aI8
aI115
aI0
aI0
aI0
aI0
aI1
aI0
aI0
aI0
aI0
aI26
aI0
aI0
aI1
aI0
aI0
aI1
aI4
aI0
aI-1
aI0
aF1.1
aI1
aI0
aI1
aI1
aI0
aI0
aI0
aI0
aI0
aI0
aI0
aI0
aI0
aVcutlass_stab
p736
aI0
aI1
aI1
aI0
aI0
asI2022
(lp737
I13713
aI1
aNaNaI1
aI0
aI0
aI0
aI0
aI0
aI0
aI0
aI100
aF0.25
aI20
aI110
aI0
aI0
aI0
aI0
aI1
aI0
aI0
aI0
aI0
aI26
aI0
aI0
aI1
aI0
aI0
aI1
aI4
aI0
aI-1
aI0
aI2
aI1
aI0
aI1
aI1
aI0
aI0
aI0
aI0
aI0
aI0
aI0
aI0
aI0
aVcutlass_stab
p738
aI0
aI1
aF0.25
aI0
aI0
asI2023
(lp739
I13713
aI1
aNaNaI1
aI0
aI0
aI0
aI0
aI0
aI0
aI0
aI100
aF0.25
aI8
aI110
aI0
aI0
aI0
aI0
aI1
aI0
aI0
aI0
aI0
aI26
aI0
aI0
aI1
aI0
aI0
aI1
aI4
aI0
aI-1
aI0
aF0.4
aI1
aI0
aI1
aI1
aI0
aI0
aI0
aI0
aI0
aI0
aI0
aI0
aI0
aVcutlass_stab
p740
aI0
aI1
aF0.5
aI0
aI0
asI2024
(lp741
I13713
aI1
aNaNaI1
aI0
aI0
aI0
aI0
aI0
aI0
aI0
aI100
aF0.25
aI5
aI110
aI0
aI0
aI0
aI0
aI1
aI0
aI0
aI0
aI0
aI26
aI0
aI0
aI1
aI0
aI0
aI1
aI4
aI0
aI-1
aI0
aF3.2
aI1
aI0
aI1
aI1
aI0
aI0
aI0
aI0
aI0
aI0
aI0
aI0
aI0
aVcutlass_stab
p742
aI0
aI1
aI3
aI0
aI0
asI2025
(lp743
I13713
aI1
aNaNaI1
aI0
aI0
aI0
aI0
aI0
aI0
aI0
aI80
aF0.25
aI5
aI115
aI0
aI0
aI0
aI0
aI1
aI0
aI0
aI0
aI0
aI26
aI0
aI0
aI1
aI0
aI0
aI1
aI4
aI0
aI-1
aI0
aF1.1
aI1
aI0
aI1
aI1
aI0
aI0
aI0
aI0
aI0
aI0
aI0
aI0
aI0
aVcutlass_stab
p744
aI0
aI1
aF1.5
aI0
aI0
asI2026
(lp745
I13713
aI1
aNaNaI1
aI0
aI0
aI0
aI0
aI0
aI0
aI0
aI90
aF0.25
aI10
aI6
aI10
aI0
aI0
aI0
aI1
aI0
aI1
aI0
aI0
aI26
aI0
aI0
aI1
aI0
aI0
aI1
aI4
aI0
aI-1
aI0
aF0.3
aI1
aI0
aI1
aI1
aI0
aI0
aI0
aI0
aI0
aI0
aI0
aI0
aI0
aVcutlass_stab
p746
aI0
aI1
aF0.75
aI0
aI0
asI2040
(lp747
I13713
aI1
aNaNaI1
aI0
aI0
aI0
aI0
aI0
aI0
aI0
aI80
aF0.25
aI30
aI15
aI0
aI0
aI0
aI0
aI1
aI0
aI3
aI0
aI0
aI7
aI0
aI0
aI1
aI0
aI0
aI1
aI5
aI0
aI-1
aI0
aF0.1
aI1
aI0
aI1
aI1
aI0
aI0
aI0
aI0
aI0
aI0
aI0
aI0
aI0
aVcutlass_stab
p748
aI0
aI1
aI1
aI0
aI0
asI2041
(lp749
I13713
aI1
aNaNaI1
aI0
aI0
aI0
aI0
aI0
aI0
aI0
aI80
aF0.25
aI30
aI15
aI0
aI0
aI0
aI0
aI1
aI0
aI3
aI0
aI0
aI7
aI0
aI0
aI1
aI0
aI0
aI1
aI5
aI0
aI-1
aI0
aF0.1
aI1
aI0
aI1
aI1
aI0
aI0
aI0
aI0
aI0
aI0
aI0
aI0
aI0
aVcutlass_stab
p750
aI0
aI1
aI1
aI0
aI0
asI2042
(lp751
I13713
aI1
aNaNaI1
aI0
aI0
aI0
aI0
aI0
aI0
aI0
aI80
aF0.25
aI2
aI10
aI0
aI0
aI0
aI0
aI1
aI0
aI0
aI0
aI0
aI26
aI0
aI0
aI1
aI0
aI0
aI1
aI3
aI0
aI-1
aI0
aF0.1
aI1
aI0
aI1
aI1
aI0
aI0
aI0
aI0
aI0
aI0
aI0
aI0
aI0
aVcutlass_stab
p752
aI0
aI1
aF0.75
aI0
aI0
asI2043
(lp753
I13713
aI1
aNaNaI1
aI0
aI0
aI0
aI0
aI0
aI0
aI0
aI80
aF0.25
aI2
aI10
aI0
aI0
aI0
aI0
aI1
aI0
aI0
aI0
aI0
aI26
aI0
aI0
aI1
aI0
aI0
aI1
aI3
aI0
aI-1
aI0
aF0.1
aI1
aI0
aI1
aI1
aI0
aI0
aI0
aI0
aI0
aI0
aI0
aI0
aI0
aVcutlass_stab
p754
aI0
aI1
aF0.75
aI0
aI0
asI2044
(lp755
I13713
aI1
aNaNaI1
aI0
aI0
aI0
aI0
aI0
aI0
aI0
aI80
aF0.25
aI5
aI12
aI0
aI0
aI0
aI0
aI1
aI0
aI2
aI0
aI0
aI7
aI0
aI0
aI1
aI0
aI0
aI1
aI10
aI0
aI-1
aI0
aF0.1
aI1
aI0
aI1
aI1
aI0
aI0
aI0
aI0
aI0
aI0
aI0
aI0
aI0
aVcutlass_stab
p756
aI0
aI1
aF1.25
aI0
aI0
asI2045
(lp757
I13713
aI1
aNaNaI1
aI0
aI0
aI0
aI0
aI0
aI0
aI0
aI80
aF0.25
aI5
aI12
aI0
aI0
aI0
aI0
aI1
aI0
aI2
aI0
aI0
aI7
aI0
aI0
aI1
aI0
aI0
aI1
aI10
aI0
aI-1
aI0
aF0.1
aI1
aI0
aI1
aI1
aI0
aI0
aI0
aI0
aI0
aI0
aI0
aI0
aI0
aVcutlass_stab
p758
aI0
aI1
aF1.25
aI0
aI0
asI2046
(lp759
I13713
aI1
aNaNaI1
aI0
aI0
aI0
aI0
aI0
aI0
aI0
aI100
aF0.25
aI15
aI25
aI25
aI0
aI0
aI0
aI1
aI0
aI1
aI0
aI0
aI156
aI0
aI0
aI1
aI0
aI0
aI1
aI6
aI0
aI-1
aI0
aF1.43
aI1
aI0
aI1
aI1
aI0
aI0
aI0
aI0
aI0
aI0
aI0
aI0
aI0
aVcutlass_stab
p760
aI42
aI1
aF0.25
aI0
aI0
as.